################################################################################
#                                                                              #
#      IAR Universal Linker V5.1.0.8                                           #
#                                                                              #
#           Link time     =  27/Jul/2012  19:40:41                             #
#           Target CPU    =  RL78                                              #
#           List file     =  D:\DESARROLLOS\prbRL78G13\Debug\List\prbRL78G13.m #
#                            ap                                                #
#           Output file 1 =  D:\DESARROLLOS\prbRL78G13\Debug\Exe\prbRL78G13.d8 #
#                            7                                                 #
#                            Format: debug                                     #
#                            UBROF version 10.0.3                              #
#                            Using library modules for C-SPY (-rt)             #
#           Command line  =  D:\DESARROLLOS\prbRL78G13\Debug\Obj\IR.r87        #
#                            D:\DESARROLLOS\prbRL78G13\Debug\Obj\RTC.r87       #
#                            D:\DESARROLLOS\prbRL78G13\Debug\Obj\bitmap_font.r #
#                            87                                                #
#                            D:\DESARROLLOS\prbRL78G13\Debug\Obj\delay.r87     #
#                            D:\DESARROLLOS\prbRL78G13\Debug\Obj\font_8x16.r87 #
#                            D:\DESARROLLOS\prbRL78G13\Debug\Obj\font_8x8.r87  #
#                            D:\DESARROLLOS\prbRL78G13\Debug\Obj\font_helvr10. #
#                            r87                                               #
#                            D:\DESARROLLOS\prbRL78G13\Debug\Obj\font_logos.r8 #
#                            7                                                 #
#                            D:\DESARROLLOS\prbRL78G13\Debug\Obj\font_winfrees #
#                            ystem14x16.r87                                    #
#                            D:\DESARROLLOS\prbRL78G13\Debug\Obj\font_x5x7.r87 #
#                            D:\DESARROLLOS\prbRL78G13\Debug\Obj\font_x6x13.r8 #
#                            7                                                 #
#                            D:\DESARROLLOS\prbRL78G13\Debug\Obj\lcd.r87       #
#                            D:\DESARROLLOS\prbRL78G13\Debug\Obj\main.r87      #
#                            D:\DESARROLLOS\prbRL78G13\Debug\Obj\spi.r87 -o    #
#                            D:\DESARROLLOS\prbRL78G13\Debug\Exe\prbRL78G13.d8 #
#                            7                                                 #
#                            -l                                                #
#                            D:\DESARROLLOS\prbRL78G13\Debug\List\prbRL78G13.m #
#                            ap                                                #
#                            -xms                                              #
#                            "-ID:\Archivos de programa\IAR Systems\Embedded W #
#                            orkbench 6.0 Kickstart\rl78\LIB\"                 #
#                            -f                                                #
#                            "D:\Archivos de programa\IAR Systems\Embedded Wor #
#                            kbench 6.0 Kickstart\rl78\CONFIG\lnkr5f100le.xcl" #
#                            (-cRL78 -Z(CODE)INTVEC=00000-0007F                #
#                            -Z(CODE)CLTVEC=00080-000BD                        #
#                            -Z(CODE)OPTBYTE=000C0-000C3                       #
#                            -Z(CODE)SECUID=000C4-000CD                        #
#                            -Z(CONST)FAR_ID#0FBFF -Z(DATA)FAR_I=FEF00-FFE1F   #
#                            -Z(CODE)RCODE,CODE=000D8-0FBFF                    #
#                            -Z(CONST)NEAR_ID=[000D8-0FBFF]/10000              #
#                            -Z(CONST)SADDR_ID=[000D8-0FBFF]/10000             #
#                            -Z(CONST)DIFUNCT=[000D8-0FBFF]/10000              #
#                            -Z(CONST)NEAR_CONST=_NEAR_CONST_LOCATION_START-_N #
#                            EAR_CONST_LOCATION_END                            #
#                            -Z(CONST)SWITCH=000D8-0FBFF                       #
#                            -P(CONST)FAR_CONST,FSWITCH=[000D8-0FBFF]/10000    #
#                            -P(CODE)XCODE=[000D8-0FBFF]/10000                 #
#                            -Z(DATA)EEPROM=F1000-F1FFF                        #
#                            -Z(DATA)WRKSEG=FFE20-FFEDF                        #
#                            -Z(DATA)SADDR_I,SADDR_Z,SADDR_N=FFE20-FFEDF       #
#                            -Z(DATA)NEAR_I,NEAR_Z,NEAR_N=FEF00-FFE1F          #
#                            -Z(DATA)FAR_Z=[FEF00-FFE1F]/10000                 #
#                            -P(DATA)FAR_N=[FEF00-FFE1F]/10000                 #
#                            -Z(DATA)NEAR_HEAP+_NEAR_HEAP_SIZE=FEF00-FFE1F     #
#                            -Z(DATA)FAR_HEAP+_FAR_HEAP_SIZE=[FEF00-FFE1F]/100 #
#                            00                                                #
#                            -Z(DATA)CSTACK+_CSTACK_SIZE=FEF00-FFE1F) -rt -s   #
#                            __program_start -D_NEAR_CONST_LOCATION=0          #
#                            -D_NEAR_CONST_LOCATION_START=2000                 #
#                            -D_NEAR_CONST_LOCATION_END=EEFF                   #
#                            "D:\Archivos de programa\IAR Systems\Embedded Wor #
#                            kbench 6.0 Kickstart\rl78\LIB\dlrl78nn1n.r87"     #
#                            -e_PrintfSmall=_Printf -e_ScanfSmall=_Scanf       #
#                            -D_CSTACK_SIZE=400 -D_NEAR_HEAP_SIZE=100          #
#                            -D_FAR_HEAP_SIZE=1000                             #
#                                                                              #
#                           Copyright (C) 1987-2011 IAR Systems AB.            #
################################################################################





                ****************************************
                *                                      *
                *           CROSS REFERENCE            *
                *                                      *
                ****************************************

       Program entry at :           000000E0  Relocatable, from module : ?CSTARTUP




                ****************************************
                *                                      *
                *            RUNTIME MODEL             *
                *                                      *
                ****************************************

  __Heap_Handler             = Basic
  __SystemLibrary            = DLib
  __code_model               = near
  __core                     = rl78_1
  __data_model               = near
  __dlib_file_descriptor     = 0
  __dlib_full_locale_support = 0
  __rt_version               = 1



                ****************************************
                *                                      *
                *              MODULE MAP              *
                *                                      *
                ****************************************


  DEFINED ABSOLUTE ENTRIES
    *************************************************************************

  DEFINED ABSOLUTE ENTRIES
  PROGRAM MODULE, NAME : ?ABS_ENTRY_MOD

Absolute parts
           ENTRY                   ADDRESS         REF BY
           =====                   =======         ======
           _FAR_HEAP_SIZE          00001000 
           _NEAR_HEAP_SIZE         00000100 
           _CSTACK_SIZE            00000400 
           _NEAR_CONST_LOCATION_END
                                   0000EEFF 
           _NEAR_CONST_LOCATION_START
                                   00002000 
           _NEAR_CONST_LOCATION    00000000        Segment part 3 (?CSTARTUP)
    *************************************************************************

  FILE NAME : D:\DESARROLLOS\prbRL78G13\Debug\Obj\IR.r87
  PROGRAM MODULE, NAME : IR

  SEGMENTS IN THE MODULE
  ======================
NEAR_A
  Relative segment, address: 000FFF23 - 000FFF23 (0x1 bytes), align: 0
  Segment part 1. ROOT.       Intra module refs:   initIR
           ENTRY                   ADDRESS         REF BY
           =====                   =======         ======
           _A_PM3                  000FFF23 
           LOCAL                   ADDRESS         
           =====                   =======         
           PM3                     000FFF23 
           PM3_bit                 000FFF23 
    -------------------------------------------------------------------------
NEAR_A
  Relative segment, address: 000FFF66 - 000FFF67 (0x2 bytes), align: 0
  Segment part 2. ROOT.       Intra module refs:   MD_INTTM03
           ENTRY                   ADDRESS         REF BY
           =====                   =======         ======
           _A_TDR03                000FFF66 
           LOCAL                   ADDRESS         
           =====                   =======         
           TDR03                   000FFF66 
           TDR03H                  000FFF67 
           TDR03L                  000FFF66 
    -------------------------------------------------------------------------
NEAR_A
  Relative segment, address: 000FFFE2 - 000FFFE3 (0x2 bytes), align: 0
  Segment part 3. ROOT.       Intra module refs:   MD_INTIT (main)
                                                   MD_INTTM03
                                                   TAUO_Canal4_INT (main)
                                                   initIR
                                                   initRTC (RTC)
                                                   main (main)
                                                   spi10_Init (spi)
           ENTRY                   ADDRESS         REF BY
           =====                   =======         ======
           _A_IF1                  000FFFE2 
           LOCAL                   ADDRESS         
           =====                   =======         
           IF1                     000FFFE2 
           IF1H                    000FFFE3 
           IF1H_bit                000FFFE3 
           IF1L                    000FFFE2 
           IF1L_bit                000FFFE2 
    -------------------------------------------------------------------------
NEAR_A
  Relative segment, address: 000FFFE6 - 000FFFE7 (0x2 bytes), align: 0
  Segment part 4. ROOT.       Intra module refs:   MD_INTTM03
                                                   initIR
                                                   initRTC (RTC)
                                                   main (main)
                                                   spi10_Init (spi)
                                                   spi10_SendReceiveData (spi)
           ENTRY                   ADDRESS         REF BY
           =====                   =======         ======
           _A_MK1                  000FFFE6 
           LOCAL                   ADDRESS         
           =====                   =======         
           MK1                     000FFFE6 
           MK1H                    000FFFE7 
           MK1H_bit                000FFFE7 
           MK1L                    000FFFE6 
           MK1L_bit                000FFFE6 
    -------------------------------------------------------------------------
NEAR_A
  Relative segment, address: 000F0071 - 000F0071 (0x1 bytes), align: 0
  Segment part 5. ROOT.       Intra module refs:   initIR
           ENTRY                   ADDRESS         REF BY
           =====                   =======         ======
           _A_NFEN1                000F0071 
           LOCAL                   ADDRESS         
           =====                   =======         
           NFEN1                   000F0071 
           NFEN1_bit               000F0071 
    -------------------------------------------------------------------------
NEAR_A
  Relative segment, address: 000F0196 - 000F0197 (0x2 bytes), align: 0
  Segment part 6. ROOT.       Intra module refs:   initIR
           ENTRY                   ADDRESS         REF BY
           =====                   =======         ======
           TMR03                   000F0196 
    -------------------------------------------------------------------------
NEAR_A
  Relative segment, address: 000F01A6 - 000F01A7 (0x2 bytes), align: 0
  Segment part 7. ROOT.       Intra module refs:   MD_INTTM03
           ENTRY                   ADDRESS         REF BY
           =====                   =======         ======
           _A_TSR03                000F01A6 
           LOCAL                   ADDRESS         
           =====                   =======         
           TSR03                   000F01A6 
           TSR03L                  000F01A6 
    -------------------------------------------------------------------------
NEAR_A
  Relative segment, address: 000F01B2 - 000F01B3 (0x2 bytes), align: 0
  Segment part 8. ROOT.       Intra module refs:   MD_INTTM03
                                                   initIR
                                                   main (main)
           ENTRY                   ADDRESS         REF BY
           =====                   =======         ======
           _A_TS0                  000F01B2 
           LOCAL                   ADDRESS         
           =====                   =======         
           TS0                     000F01B2 
           TS0L                    000F01B2 
           TS0L_bit                000F01B2 
    -------------------------------------------------------------------------
NEAR_A
  Relative segment, address: 000F01B4 - 000F01B5 (0x2 bytes), align: 0
  Segment part 9. ROOT.       Intra module refs:   MD_INTTM03
                                                   main (main)
           ENTRY                   ADDRESS         REF BY
           =====                   =======         ======
           _A_TT0                  000F01B4 
           LOCAL                   ADDRESS         
           =====                   =======         
           TT0                     000F01B4 
           TT0L                    000F01B4 
           TT0L_bit                000F01B4 
    -------------------------------------------------------------------------
NEAR_A
  Relative segment, address: 000F01B8 - 000F01B9 (0x2 bytes), align: 0
  Segment part 10. ROOT.      Intra module refs:   initIR
                                                   main (main)
           ENTRY                   ADDRESS         REF BY
           =====                   =======         ======
           _A_TO0                  000F01B8 
           LOCAL                   ADDRESS         
           =====                   =======         
           TO0                     000F01B8 
           TO0L                    000F01B8 
    -------------------------------------------------------------------------
NEAR_A
  Relative segment, address: 000F01BA - 000F01BB (0x2 bytes), align: 0
  Segment part 11. ROOT.      Intra module refs:   initIR
                                                   main (main)
           ENTRY                   ADDRESS         REF BY
           =====                   =======         ======
           _A_TOE0                 000F01BA 
           LOCAL                   ADDRESS         
           =====                   =======         
           TOE0                    000F01BA 
           TOE0L                   000F01BA 
           TOE0L_bit               000F01BA 
    -------------------------------------------------------------------------
NEAR_A
  Relative segment, address: 000F01BC - 000F01BD (0x2 bytes), align: 0
  Segment part 12. ROOT.      Intra module refs:   initIR
                                                   main (main)
           ENTRY                   ADDRESS         REF BY
           =====                   =======         ======
           _A_TOL0                 000F01BC 
           LOCAL                   ADDRESS         
           =====                   =======         
           TOL0                    000F01BC 
           TOL0L                   000F01BC 
    -------------------------------------------------------------------------
NEAR_A
  Relative segment, address: 000F01BE - 000F01BF (0x2 bytes), align: 0
  Segment part 13. ROOT.      Intra module refs:   initIR
                                                   main (main)
           ENTRY                   ADDRESS         REF BY
           =====                   =======         ======
           _A_TOM0                 000F01BE 
           LOCAL                   ADDRESS         
           =====                   =======         
           TOM0                    000F01BE 
           TOM0L                   000F01BE 
    -------------------------------------------------------------------------
NEAR_Z
  Relative segment, address: 000FF70E - 000FF711 (0x4 bytes), align: 1
  Segment part 16.            Intra module refs:   MD_INTTM03
           ENTRY                   ADDRESS         REF BY
           =====                   =======         ======
           gTau0Ch3Width           000FF70E 
    -------------------------------------------------------------------------
NEAR_Z
  Relative segment, address: 000FF844 - 000FF844 (0x1 bytes), align: 0
  Segment part 21.            Intra module refs:   MD_INTTM03
                                                   startIR
           ENTRY                   ADDRESS         REF BY
           =====                   =======         ======
           got_packet              000FF844        main (main)
    -------------------------------------------------------------------------
NEAR_Z
  Relative segment, address: 000FF712 - 000FF829 (0x118 bytes), align: 1
  Segment part 25.            Intra module refs:   MD_INTTM03
                                                   decodeIR
                                                   startIR
           ENTRY                   ADDRESS         REF BY
           =====                   =======         ======
           PulseWidth              000FF712 
    -------------------------------------------------------------------------
NEAR_Z
  Relative segment, address: 000FF82A - 000FF82B (0x2 bytes), align: 1
  Segment part 26.            Intra module refs:   MD_INTTM03
                                                   startIR
           ENTRY                   ADDRESS         REF BY
           =====                   =======         ======
           irPtr                   000FF82A 
    -------------------------------------------------------------------------
CODE
  Relative segment, address: 00000558 - 0000056D (0x16 bytes), align: 0
  Segment part 27.            Intra module refs:   initIR
           ENTRY                   ADDRESS         REF BY
           =====                   =======         ======
           startIR                 00000558        main (main)
               calls direct
               CSTACK = 00000000 ( 00000004 )
    -------------------------------------------------------------------------
CODE
  Relative segment, address: 0000056E - 000005B2 (0x45 bytes), align: 0
  Segment part 28.
           ENTRY                   ADDRESS         REF BY
           =====                   =======         ======
           initIR                  0000056E        main (main)
               calls direct
    -------------------------------------------------------------------------
CODE
  Relative segment, address: 000005B3 - 00000689 (0xd7 bytes), align: 0
  Segment part 29.
           ENTRY                   ADDRESS         REF BY
           =====                   =======         ======
           decodeIR                000005B3        main (main)
               CSTACK = 00000000 ( 0000000E )
    -------------------------------------------------------------------------
CODE
  Relative segment, address: 0000068A - 00000737 (0xae bytes), align: 0
  Segment part 30.            Intra module refs:   MD_INTTM03::??INTVEC 50
           ENTRY                   ADDRESS         REF BY
           =====                   =======         ======
           MD_INTTM03              0000068A 
               interrupt function
               CSTACK = 00000000 ( 0000000C )
    -------------------------------------------------------------------------
INTVEC
  Common segment, address: 00000000 - 00000033 (0x34 bytes), align: 1
  Segment part 14. ROOT.
           ENTRY                   ADDRESS         REF BY
           =====                   =======         ======
           MD_INTTM03::??INTVEC 50
                                   00000032 

    *************************************************************************

  FILE NAME : D:\DESARROLLOS\prbRL78G13\Debug\Obj\RTC.r87
  PROGRAM MODULE, NAME : RTC

  SEGMENTS IN THE MODULE
  ======================
NEAR_A
  Relative segment, address: 000FFF92 - 000FFF92 (0x1 bytes), align: 0
  Segment part 1. ROOT.       Intra module refs:   R_RTC_Interrupt
                                                   main (main)
           ENTRY                   ADDRESS         REF BY
           =====                   =======         ======
           SEC                     000FFF92 
    -------------------------------------------------------------------------
NEAR_A
  Relative segment, address: 000FFF93 - 000FFF93 (0x1 bytes), align: 0
  Segment part 2. ROOT.       Intra module refs:   R_RTC_Interrupt
                                                   main (main)
           ENTRY                   ADDRESS         REF BY
           =====                   =======         ======
           MIN                     000FFF93 
    -------------------------------------------------------------------------
NEAR_A
  Relative segment, address: 000FFF94 - 000FFF94 (0x1 bytes), align: 0
  Segment part 3. ROOT.       Intra module refs:   R_RTC_Interrupt
                                                   main (main)
           ENTRY                   ADDRESS         REF BY
           =====                   =======         ======
           HOUR                    000FFF94 
    -------------------------------------------------------------------------
NEAR_A
  Relative segment, address: 000FFF95 - 000FFF95 (0x1 bytes), align: 0
  Segment part 4. ROOT.       Intra module refs:   R_RTC_Interrupt
           ENTRY                   ADDRESS         REF BY
           =====                   =======         ======
           WEEK                    000FFF95 
    -------------------------------------------------------------------------
NEAR_A
  Relative segment, address: 000FFF96 - 000FFF96 (0x1 bytes), align: 0
  Segment part 5. ROOT.       Intra module refs:   R_RTC_Interrupt
           ENTRY                   ADDRESS         REF BY
           =====                   =======         ======
           DAY                     000FFF96 
    -------------------------------------------------------------------------
NEAR_A
  Relative segment, address: 000FFF97 - 000FFF97 (0x1 bytes), align: 0
  Segment part 6. ROOT.       Intra module refs:   R_RTC_Interrupt
           ENTRY                   ADDRESS         REF BY
           =====                   =======         ======
           MONTH                   000FFF97 
    -------------------------------------------------------------------------
NEAR_A
  Relative segment, address: 000FFF98 - 000FFF98 (0x1 bytes), align: 0
  Segment part 7. ROOT.       Intra module refs:   R_RTC_Interrupt
           ENTRY                   ADDRESS         REF BY
           =====                   =======         ======
           YEAR                    000FFF98 
    -------------------------------------------------------------------------
NEAR_A
  Relative segment, address: 000FFF9D - 000FFF9D (0x1 bytes), align: 0
  Segment part 8. ROOT.       Intra module refs:   initRTC
           ENTRY                   ADDRESS         REF BY
           =====                   =======         ======
           _A_RTCC0                000FFF9D 
           LOCAL                   ADDRESS         
           =====                   =======         
           RTCC0                   000FFF9D 
           RTCC0_bit               000FFF9D 
    -------------------------------------------------------------------------
NEAR_A
  Relative segment, address: 000FFF9E - 000FFF9E (0x1 bytes), align: 0
  Segment part 9. ROOT.       Intra module refs:   R_RTC_Interrupt
           ENTRY                   ADDRESS         REF BY
           =====                   =======         ======
           _A_RTCC1                000FFF9E 
           LOCAL                   ADDRESS         
           =====                   =======         
           RTCC1                   000FFF9E 
           RTCC1_bit               000FFF9E 
    -------------------------------------------------------------------------
NEAR_A
  Relative segment, address: 000FFFEA - 000FFFEB (0x2 bytes), align: 0
  Segment part 12. ROOT.      Intra module refs:   initRTC
                                                   main (main)
                                                   spi10_Init (spi)
           ENTRY                   ADDRESS         REF BY
           =====                   =======         ======
           _A_PR01                 000FFFEA 
           LOCAL                   ADDRESS         
           =====                   =======         
           PR01                    000FFFEA 
           PR01H                   000FFFEB 
           PR01H_bit               000FFFEB 
           PR01L                   000FFFEA 
           PR01L_bit               000FFFEA 
    -------------------------------------------------------------------------
NEAR_A
  Relative segment, address: 000FFFEE - 000FFFEF (0x2 bytes), align: 0
  Segment part 13. ROOT.      Intra module refs:   initRTC
                                                   main (main)
                                                   spi10_Init (spi)
           ENTRY                   ADDRESS         REF BY
           =====                   =======         ======
           _A_PR11                 000FFFEE 
           LOCAL                   ADDRESS         
           =====                   =======         
           PR11                    000FFFEE 
           PR11H                   000FFFEF 
           PR11H_bit               000FFFEF 
           PR11L                   000FFFEE 
           PR11L_bit               000FFFEE 
    -------------------------------------------------------------------------
NEAR_A
  Relative segment, address: 000F00F0 - 000F00F0 (0x1 bytes), align: 0
  Segment part 14. ROOT.      Intra module refs:   initRTC
                                                   main (main)
                                                   spi10_Init (spi)
           ENTRY                   ADDRESS         REF BY
           =====                   =======         ======
           _A_PER0                 000F00F0 
           LOCAL                   ADDRESS         
           =====                   =======         
           PER0                    000F00F0 
           PER0_bit                000F00F0 
    -------------------------------------------------------------------------
NEAR_Z
  Relative segment, address: 000FF82C - 000FF82D (0x2 bytes), align: 1
  Segment part 17.            Intra module refs:   R_RTC_Interrupt
           ENTRY                   ADDRESS         REF BY
           =====                   =======         ======
           stRTC_Data              000FF82C 
    -------------------------------------------------------------------------
CODE
  Relative segment, address: 00000738 - 00000755 (0x1e bytes), align: 0
  Segment part 18.
           ENTRY                   ADDRESS         REF BY
           =====                   =======         ======
           initRTC                 00000738        main (main)
    -------------------------------------------------------------------------
CODE
  Relative segment, address: 00000756 - 000007D3 (0x7e bytes), align: 0
  Segment part 19.            Intra module refs:   R_RTC_Interrupt::??INTVEC 54
           ENTRY                   ADDRESS         REF BY
           =====                   =======         ======
           R_RTC_Interrupt         00000756 
               interrupt function
               CSTACK = 00000000 ( 00000006 )
    -------------------------------------------------------------------------
INTVEC
  Common segment, address: 00000000 - 00000037 (0x38 bytes), align: 1
  Segment part 15. ROOT.
           ENTRY                   ADDRESS         REF BY
           =====                   =======         ======
           R_RTC_Interrupt::??INTVEC 54
                                   00000036 

    *************************************************************************

  FILE NAME : D:\DESARROLLOS\prbRL78G13\Debug\Obj\bitmap_font.r87
    *************************************************************************

  FILE NAME : D:\DESARROLLOS\prbRL78G13\Debug\Obj\delay.r87
  PROGRAM MODULE, NAME : delay

  SEGMENTS IN THE MODULE
  ======================
CODE
  Relative segment, address: 000007D4 - 00000815 (0x42 bytes), align: 0
  Segment part 2.             Intra module refs:   delay_ms
           ENTRY                   ADDRESS         REF BY
           =====                   =======         ======
           delay_10us              000007D4 
               CSTACK = 00000004 ( 0000000A )
    -------------------------------------------------------------------------
CODE
  Relative segment, address: 00000816 - 00000833 (0x1e bytes), align: 0
  Segment part 3.
           ENTRY                   ADDRESS         REF BY
           =====                   =======         ======
           delay_ms                00000816        main (main)
               calls direct
               CSTACK = 00000000 ( 00000004 )

    *************************************************************************

  FILE NAME : D:\DESARROLLOS\prbRL78G13\Debug\Obj\font_8x16.r87
    *************************************************************************

  FILE NAME : D:\DESARROLLOS\prbRL78G13\Debug\Obj\font_8x8.r87
  PROGRAM MODULE, NAME : font_8x8

  SEGMENTS IN THE MODULE
  ======================
NEAR_CONST
  Relative segment, address: 000020BC - 000020C5 (0xa bytes), align: 1
  Segment part 2.             Intra module refs:   Segment part 258
           ENTRY                   ADDRESS         REF BY
           =====                   =======         ======
           Font8x8_char_0          000020BC 
    -------------------------------------------------------------------------
NEAR_CONST
  Relative segment, address: 000020C6 - 000020CF (0xa bytes), align: 1
  Segment part 3.             Intra module refs:   Segment part 258
           ENTRY                   ADDRESS         REF BY
           =====                   =======         ======
           Font8x8_char_1          000020C6 
    -------------------------------------------------------------------------
NEAR_CONST
  Relative segment, address: 000020D0 - 000020D9 (0xa bytes), align: 1
  Segment part 4.             Intra module refs:   Segment part 258
           ENTRY                   ADDRESS         REF BY
           =====                   =======         ======
           Font8x8_char_2          000020D0 
    -------------------------------------------------------------------------
NEAR_CONST
  Relative segment, address: 000020DA - 000020E3 (0xa bytes), align: 1
  Segment part 5.             Intra module refs:   Segment part 258
           ENTRY                   ADDRESS         REF BY
           =====                   =======         ======
           Font8x8_char_3          000020DA 
    -------------------------------------------------------------------------
NEAR_CONST
  Relative segment, address: 000020E4 - 000020ED (0xa bytes), align: 1
  Segment part 6.             Intra module refs:   Segment part 258
           ENTRY                   ADDRESS         REF BY
           =====                   =======         ======
           Font8x8_char_4          000020E4 
    -------------------------------------------------------------------------
NEAR_CONST
  Relative segment, address: 000020EE - 000020F7 (0xa bytes), align: 1
  Segment part 7.             Intra module refs:   Segment part 258
           ENTRY                   ADDRESS         REF BY
           =====                   =======         ======
           Font8x8_char_5          000020EE 
    -------------------------------------------------------------------------
NEAR_CONST
  Relative segment, address: 000020F8 - 00002101 (0xa bytes), align: 1
  Segment part 8.             Intra module refs:   Segment part 258
           ENTRY                   ADDRESS         REF BY
           =====                   =======         ======
           Font8x8_char_6          000020F8 
    -------------------------------------------------------------------------
NEAR_CONST
  Relative segment, address: 00002102 - 0000210B (0xa bytes), align: 1
  Segment part 9.             Intra module refs:   Segment part 258
           ENTRY                   ADDRESS         REF BY
           =====                   =======         ======
           Font8x8_char_7          00002102 
    -------------------------------------------------------------------------
NEAR_CONST
  Relative segment, address: 0000210C - 00002115 (0xa bytes), align: 1
  Segment part 10.            Intra module refs:   Segment part 258
           ENTRY                   ADDRESS         REF BY
           =====                   =======         ======
           Font8x8_char_8          0000210C 
    -------------------------------------------------------------------------
NEAR_CONST
  Relative segment, address: 00002116 - 0000211F (0xa bytes), align: 1
  Segment part 11.            Intra module refs:   Segment part 258
           ENTRY                   ADDRESS         REF BY
           =====                   =======         ======
           Font8x8_char_9          00002116 
    -------------------------------------------------------------------------
NEAR_CONST
  Relative segment, address: 00002120 - 00002129 (0xa bytes), align: 1
  Segment part 12.            Intra module refs:   Segment part 258
           ENTRY                   ADDRESS         REF BY
           =====                   =======         ======
           Font8x8_char_10         00002120 
    -------------------------------------------------------------------------
NEAR_CONST
  Relative segment, address: 0000212A - 00002133 (0xa bytes), align: 1
  Segment part 13.            Intra module refs:   Segment part 258
           ENTRY                   ADDRESS         REF BY
           =====                   =======         ======
           Font8x8_char_11         0000212A 
    -------------------------------------------------------------------------
NEAR_CONST
  Relative segment, address: 00002134 - 0000213D (0xa bytes), align: 1
  Segment part 14.            Intra module refs:   Segment part 258
           ENTRY                   ADDRESS         REF BY
           =====                   =======         ======
           Font8x8_char_12         00002134 
    -------------------------------------------------------------------------
NEAR_CONST
  Relative segment, address: 0000213E - 00002147 (0xa bytes), align: 1
  Segment part 15.            Intra module refs:   Segment part 258
           ENTRY                   ADDRESS         REF BY
           =====                   =======         ======
           Font8x8_char_13         0000213E 
    -------------------------------------------------------------------------
NEAR_CONST
  Relative segment, address: 00002148 - 00002151 (0xa bytes), align: 1
  Segment part 16.            Intra module refs:   Segment part 258
           ENTRY                   ADDRESS         REF BY
           =====                   =======         ======
           Font8x8_char_14         00002148 
    -------------------------------------------------------------------------
NEAR_CONST
  Relative segment, address: 00002152 - 0000215B (0xa bytes), align: 1
  Segment part 17.            Intra module refs:   Segment part 258
           ENTRY                   ADDRESS         REF BY
           =====                   =======         ======
           Font8x8_char_15         00002152 
    -------------------------------------------------------------------------
NEAR_CONST
  Relative segment, address: 0000215C - 00002165 (0xa bytes), align: 1
  Segment part 18.            Intra module refs:   Segment part 258
           ENTRY                   ADDRESS         REF BY
           =====                   =======         ======
           Font8x8_char_16         0000215C 
    -------------------------------------------------------------------------
NEAR_CONST
  Relative segment, address: 00002166 - 0000216F (0xa bytes), align: 1
  Segment part 19.            Intra module refs:   Segment part 258
           ENTRY                   ADDRESS         REF BY
           =====                   =======         ======
           Font8x8_char_17         00002166 
    -------------------------------------------------------------------------
NEAR_CONST
  Relative segment, address: 00002170 - 00002179 (0xa bytes), align: 1
  Segment part 20.            Intra module refs:   Segment part 258
           ENTRY                   ADDRESS         REF BY
           =====                   =======         ======
           Font8x8_char_18         00002170 
    -------------------------------------------------------------------------
NEAR_CONST
  Relative segment, address: 0000217A - 00002183 (0xa bytes), align: 1
  Segment part 21.            Intra module refs:   Segment part 258
           ENTRY                   ADDRESS         REF BY
           =====                   =======         ======
           Font8x8_char_19         0000217A 
    -------------------------------------------------------------------------
NEAR_CONST
  Relative segment, address: 00002184 - 0000218D (0xa bytes), align: 1
  Segment part 22.            Intra module refs:   Segment part 258
           ENTRY                   ADDRESS         REF BY
           =====                   =======         ======
           Font8x8_char_20         00002184 
    -------------------------------------------------------------------------
NEAR_CONST
  Relative segment, address: 0000218E - 00002197 (0xa bytes), align: 1
  Segment part 23.            Intra module refs:   Segment part 258
           ENTRY                   ADDRESS         REF BY
           =====                   =======         ======
           Font8x8_char_21         0000218E 
    -------------------------------------------------------------------------
NEAR_CONST
  Relative segment, address: 00002198 - 000021A1 (0xa bytes), align: 1
  Segment part 24.            Intra module refs:   Segment part 258
           ENTRY                   ADDRESS         REF BY
           =====                   =======         ======
           Font8x8_char_22         00002198 
    -------------------------------------------------------------------------
NEAR_CONST
  Relative segment, address: 000021A2 - 000021AB (0xa bytes), align: 1
  Segment part 25.            Intra module refs:   Segment part 258
           ENTRY                   ADDRESS         REF BY
           =====                   =======         ======
           Font8x8_char_23         000021A2 
    -------------------------------------------------------------------------
NEAR_CONST
  Relative segment, address: 000021AC - 000021B5 (0xa bytes), align: 1
  Segment part 26.            Intra module refs:   Segment part 258
           ENTRY                   ADDRESS         REF BY
           =====                   =======         ======
           Font8x8_char_24         000021AC 
    -------------------------------------------------------------------------
NEAR_CONST
  Relative segment, address: 000021B6 - 000021BF (0xa bytes), align: 1
  Segment part 27.            Intra module refs:   Segment part 258
           ENTRY                   ADDRESS         REF BY
           =====                   =======         ======
           Font8x8_char_25         000021B6 
    -------------------------------------------------------------------------
NEAR_CONST
  Relative segment, address: 000021C0 - 000021C9 (0xa bytes), align: 1
  Segment part 28.            Intra module refs:   Segment part 258
           ENTRY                   ADDRESS         REF BY
           =====                   =======         ======
           Font8x8_char_26         000021C0 
    -------------------------------------------------------------------------
NEAR_CONST
  Relative segment, address: 000021CA - 000021D3 (0xa bytes), align: 1
  Segment part 29.            Intra module refs:   Segment part 258
           ENTRY                   ADDRESS         REF BY
           =====                   =======         ======
           Font8x8_char_27         000021CA 
    -------------------------------------------------------------------------
NEAR_CONST
  Relative segment, address: 000021D4 - 000021DD (0xa bytes), align: 1
  Segment part 30.            Intra module refs:   Segment part 258
           ENTRY                   ADDRESS         REF BY
           =====                   =======         ======
           Font8x8_char_28         000021D4 
    -------------------------------------------------------------------------
NEAR_CONST
  Relative segment, address: 000021DE - 000021E7 (0xa bytes), align: 1
  Segment part 31.            Intra module refs:   Segment part 258
           ENTRY                   ADDRESS         REF BY
           =====                   =======         ======
           Font8x8_char_29         000021DE 
    -------------------------------------------------------------------------
NEAR_CONST
  Relative segment, address: 000021E8 - 000021F1 (0xa bytes), align: 1
  Segment part 32.            Intra module refs:   Segment part 258
           ENTRY                   ADDRESS         REF BY
           =====                   =======         ======
           Font8x8_char_30         000021E8 
    -------------------------------------------------------------------------
NEAR_CONST
  Relative segment, address: 000021F2 - 000021FB (0xa bytes), align: 1
  Segment part 33.            Intra module refs:   Segment part 258
           ENTRY                   ADDRESS         REF BY
           =====                   =======         ======
           Font8x8_char_31         000021F2 
    -------------------------------------------------------------------------
NEAR_CONST
  Relative segment, address: 000021FC - 00002205 (0xa bytes), align: 1
  Segment part 34.            Intra module refs:   Segment part 258
           ENTRY                   ADDRESS         REF BY
           =====                   =======         ======
           Font8x8_char_32         000021FC 
    -------------------------------------------------------------------------
NEAR_CONST
  Relative segment, address: 00002206 - 0000220F (0xa bytes), align: 1
  Segment part 35.            Intra module refs:   Segment part 258
           ENTRY                   ADDRESS         REF BY
           =====                   =======         ======
           Font8x8_char_33         00002206 
    -------------------------------------------------------------------------
NEAR_CONST
  Relative segment, address: 00002210 - 00002219 (0xa bytes), align: 1
  Segment part 36.            Intra module refs:   Segment part 258
           ENTRY                   ADDRESS         REF BY
           =====                   =======         ======
           Font8x8_char_34         00002210 
    -------------------------------------------------------------------------
NEAR_CONST
  Relative segment, address: 0000221A - 00002223 (0xa bytes), align: 1
  Segment part 37.            Intra module refs:   Segment part 258
           ENTRY                   ADDRESS         REF BY
           =====                   =======         ======
           Font8x8_char_35         0000221A 
    -------------------------------------------------------------------------
NEAR_CONST
  Relative segment, address: 00002224 - 0000222D (0xa bytes), align: 1
  Segment part 38.            Intra module refs:   Segment part 258
           ENTRY                   ADDRESS         REF BY
           =====                   =======         ======
           Font8x8_char_36         00002224 
    -------------------------------------------------------------------------
NEAR_CONST
  Relative segment, address: 0000222E - 00002237 (0xa bytes), align: 1
  Segment part 39.            Intra module refs:   Segment part 258
           ENTRY                   ADDRESS         REF BY
           =====                   =======         ======
           Font8x8_char_37         0000222E 
    -------------------------------------------------------------------------
NEAR_CONST
  Relative segment, address: 00002238 - 00002241 (0xa bytes), align: 1
  Segment part 40.            Intra module refs:   Segment part 258
           ENTRY                   ADDRESS         REF BY
           =====                   =======         ======
           Font8x8_char_38         00002238 
    -------------------------------------------------------------------------
NEAR_CONST
  Relative segment, address: 00002242 - 0000224B (0xa bytes), align: 1
  Segment part 41.            Intra module refs:   Segment part 258
           ENTRY                   ADDRESS         REF BY
           =====                   =======         ======
           Font8x8_char_39         00002242 
    -------------------------------------------------------------------------
NEAR_CONST
  Relative segment, address: 0000224C - 00002255 (0xa bytes), align: 1
  Segment part 42.            Intra module refs:   Segment part 258
           ENTRY                   ADDRESS         REF BY
           =====                   =======         ======
           Font8x8_char_40         0000224C 
    -------------------------------------------------------------------------
NEAR_CONST
  Relative segment, address: 00002256 - 0000225F (0xa bytes), align: 1
  Segment part 43.            Intra module refs:   Segment part 258
           ENTRY                   ADDRESS         REF BY
           =====                   =======         ======
           Font8x8_char_41         00002256 
    -------------------------------------------------------------------------
NEAR_CONST
  Relative segment, address: 00002260 - 00002269 (0xa bytes), align: 1
  Segment part 44.            Intra module refs:   Segment part 258
           ENTRY                   ADDRESS         REF BY
           =====                   =======         ======
           Font8x8_char_42         00002260 
    -------------------------------------------------------------------------
NEAR_CONST
  Relative segment, address: 0000226A - 00002273 (0xa bytes), align: 1
  Segment part 45.            Intra module refs:   Segment part 258
           ENTRY                   ADDRESS         REF BY
           =====                   =======         ======
           Font8x8_char_43         0000226A 
    -------------------------------------------------------------------------
NEAR_CONST
  Relative segment, address: 00002274 - 0000227D (0xa bytes), align: 1
  Segment part 46.            Intra module refs:   Segment part 258
           ENTRY                   ADDRESS         REF BY
           =====                   =======         ======
           Font8x8_char_44         00002274 
    -------------------------------------------------------------------------
NEAR_CONST
  Relative segment, address: 0000227E - 00002287 (0xa bytes), align: 1
  Segment part 47.            Intra module refs:   Segment part 258
           ENTRY                   ADDRESS         REF BY
           =====                   =======         ======
           Font8x8_char_45         0000227E 
    -------------------------------------------------------------------------
NEAR_CONST
  Relative segment, address: 00002288 - 00002291 (0xa bytes), align: 1
  Segment part 48.            Intra module refs:   Segment part 258
           ENTRY                   ADDRESS         REF BY
           =====                   =======         ======
           Font8x8_char_46         00002288 
    -------------------------------------------------------------------------
NEAR_CONST
  Relative segment, address: 00002292 - 0000229B (0xa bytes), align: 1
  Segment part 49.            Intra module refs:   Segment part 258
           ENTRY                   ADDRESS         REF BY
           =====                   =======         ======
           Font8x8_char_47         00002292 
    -------------------------------------------------------------------------
NEAR_CONST
  Relative segment, address: 0000229C - 000022A5 (0xa bytes), align: 1
  Segment part 50.            Intra module refs:   Segment part 258
           ENTRY                   ADDRESS         REF BY
           =====                   =======         ======
           Font8x8_char_48         0000229C 
    -------------------------------------------------------------------------
NEAR_CONST
  Relative segment, address: 000022A6 - 000022AF (0xa bytes), align: 1
  Segment part 51.            Intra module refs:   Segment part 258
           ENTRY                   ADDRESS         REF BY
           =====                   =======         ======
           Font8x8_char_49         000022A6 
    -------------------------------------------------------------------------
NEAR_CONST
  Relative segment, address: 000022B0 - 000022B9 (0xa bytes), align: 1
  Segment part 52.            Intra module refs:   Segment part 258
           ENTRY                   ADDRESS         REF BY
           =====                   =======         ======
           Font8x8_char_50         000022B0 
    -------------------------------------------------------------------------
NEAR_CONST
  Relative segment, address: 000022BA - 000022C3 (0xa bytes), align: 1
  Segment part 53.            Intra module refs:   Segment part 258
           ENTRY                   ADDRESS         REF BY
           =====                   =======         ======
           Font8x8_char_51         000022BA 
    -------------------------------------------------------------------------
NEAR_CONST
  Relative segment, address: 000022C4 - 000022CD (0xa bytes), align: 1
  Segment part 54.            Intra module refs:   Segment part 258
           ENTRY                   ADDRESS         REF BY
           =====                   =======         ======
           Font8x8_char_52         000022C4 
    -------------------------------------------------------------------------
NEAR_CONST
  Relative segment, address: 000022CE - 000022D7 (0xa bytes), align: 1
  Segment part 55.            Intra module refs:   Segment part 258
           ENTRY                   ADDRESS         REF BY
           =====                   =======         ======
           Font8x8_char_53         000022CE 
    -------------------------------------------------------------------------
NEAR_CONST
  Relative segment, address: 000022D8 - 000022E1 (0xa bytes), align: 1
  Segment part 56.            Intra module refs:   Segment part 258
           ENTRY                   ADDRESS         REF BY
           =====                   =======         ======
           Font8x8_char_54         000022D8 
    -------------------------------------------------------------------------
NEAR_CONST
  Relative segment, address: 000022E2 - 000022EB (0xa bytes), align: 1
  Segment part 57.            Intra module refs:   Segment part 258
           ENTRY                   ADDRESS         REF BY
           =====                   =======         ======
           Font8x8_char_55         000022E2 
    -------------------------------------------------------------------------
NEAR_CONST
  Relative segment, address: 000022EC - 000022F5 (0xa bytes), align: 1
  Segment part 58.            Intra module refs:   Segment part 258
           ENTRY                   ADDRESS         REF BY
           =====                   =======         ======
           Font8x8_char_56         000022EC 
    -------------------------------------------------------------------------
NEAR_CONST
  Relative segment, address: 000022F6 - 000022FF (0xa bytes), align: 1
  Segment part 59.            Intra module refs:   Segment part 258
           ENTRY                   ADDRESS         REF BY
           =====                   =======         ======
           Font8x8_char_57         000022F6 
    -------------------------------------------------------------------------
NEAR_CONST
  Relative segment, address: 00002300 - 00002309 (0xa bytes), align: 1
  Segment part 60.            Intra module refs:   Segment part 258
           ENTRY                   ADDRESS         REF BY
           =====                   =======         ======
           Font8x8_char_58         00002300 
    -------------------------------------------------------------------------
NEAR_CONST
  Relative segment, address: 0000230A - 00002313 (0xa bytes), align: 1
  Segment part 61.            Intra module refs:   Segment part 258
           ENTRY                   ADDRESS         REF BY
           =====                   =======         ======
           Font8x8_char_59         0000230A 
    -------------------------------------------------------------------------
NEAR_CONST
  Relative segment, address: 00002314 - 0000231D (0xa bytes), align: 1
  Segment part 62.            Intra module refs:   Segment part 258
           ENTRY                   ADDRESS         REF BY
           =====                   =======         ======
           Font8x8_char_60         00002314 
    -------------------------------------------------------------------------
NEAR_CONST
  Relative segment, address: 0000231E - 00002327 (0xa bytes), align: 1
  Segment part 63.            Intra module refs:   Segment part 258
           ENTRY                   ADDRESS         REF BY
           =====                   =======         ======
           Font8x8_char_61         0000231E 
    -------------------------------------------------------------------------
NEAR_CONST
  Relative segment, address: 00002328 - 00002331 (0xa bytes), align: 1
  Segment part 64.            Intra module refs:   Segment part 258
           ENTRY                   ADDRESS         REF BY
           =====                   =======         ======
           Font8x8_char_62         00002328 
    -------------------------------------------------------------------------
NEAR_CONST
  Relative segment, address: 00002332 - 0000233B (0xa bytes), align: 1
  Segment part 65.            Intra module refs:   Segment part 258
           ENTRY                   ADDRESS         REF BY
           =====                   =======         ======
           Font8x8_char_63         00002332 
    -------------------------------------------------------------------------
NEAR_CONST
  Relative segment, address: 0000233C - 00002345 (0xa bytes), align: 1
  Segment part 66.            Intra module refs:   Segment part 258
           ENTRY                   ADDRESS         REF BY
           =====                   =======         ======
           Font8x8_char_64         0000233C 
    -------------------------------------------------------------------------
NEAR_CONST
  Relative segment, address: 00002346 - 0000234F (0xa bytes), align: 1
  Segment part 67.            Intra module refs:   Segment part 258
           ENTRY                   ADDRESS         REF BY
           =====                   =======         ======
           Font8x8_char_65         00002346 
    -------------------------------------------------------------------------
NEAR_CONST
  Relative segment, address: 00002350 - 00002359 (0xa bytes), align: 1
  Segment part 68.            Intra module refs:   Segment part 258
           ENTRY                   ADDRESS         REF BY
           =====                   =======         ======
           Font8x8_char_66         00002350 
    -------------------------------------------------------------------------
NEAR_CONST
  Relative segment, address: 0000235A - 00002363 (0xa bytes), align: 1
  Segment part 69.            Intra module refs:   Segment part 258
           ENTRY                   ADDRESS         REF BY
           =====                   =======         ======
           Font8x8_char_67         0000235A 
    -------------------------------------------------------------------------
NEAR_CONST
  Relative segment, address: 00002364 - 0000236D (0xa bytes), align: 1
  Segment part 70.            Intra module refs:   Segment part 258
           ENTRY                   ADDRESS         REF BY
           =====                   =======         ======
           Font8x8_char_68         00002364 
    -------------------------------------------------------------------------
NEAR_CONST
  Relative segment, address: 0000236E - 00002377 (0xa bytes), align: 1
  Segment part 71.            Intra module refs:   Segment part 258
           ENTRY                   ADDRESS         REF BY
           =====                   =======         ======
           Font8x8_char_69         0000236E 
    -------------------------------------------------------------------------
NEAR_CONST
  Relative segment, address: 00002378 - 00002381 (0xa bytes), align: 1
  Segment part 72.            Intra module refs:   Segment part 258
           ENTRY                   ADDRESS         REF BY
           =====                   =======         ======
           Font8x8_char_70         00002378 
    -------------------------------------------------------------------------
NEAR_CONST
  Relative segment, address: 00002382 - 0000238B (0xa bytes), align: 1
  Segment part 73.            Intra module refs:   Segment part 258
           ENTRY                   ADDRESS         REF BY
           =====                   =======         ======
           Font8x8_char_71         00002382 
    -------------------------------------------------------------------------
NEAR_CONST
  Relative segment, address: 0000238C - 00002395 (0xa bytes), align: 1
  Segment part 74.            Intra module refs:   Segment part 258
           ENTRY                   ADDRESS         REF BY
           =====                   =======         ======
           Font8x8_char_72         0000238C 
    -------------------------------------------------------------------------
NEAR_CONST
  Relative segment, address: 00002396 - 0000239F (0xa bytes), align: 1
  Segment part 75.            Intra module refs:   Segment part 258
           ENTRY                   ADDRESS         REF BY
           =====                   =======         ======
           Font8x8_char_73         00002396 
    -------------------------------------------------------------------------
NEAR_CONST
  Relative segment, address: 000023A0 - 000023A9 (0xa bytes), align: 1
  Segment part 76.            Intra module refs:   Segment part 258
           ENTRY                   ADDRESS         REF BY
           =====                   =======         ======
           Font8x8_char_74         000023A0 
    -------------------------------------------------------------------------
NEAR_CONST
  Relative segment, address: 000023AA - 000023B3 (0xa bytes), align: 1
  Segment part 77.            Intra module refs:   Segment part 258
           ENTRY                   ADDRESS         REF BY
           =====                   =======         ======
           Font8x8_char_75         000023AA 
    -------------------------------------------------------------------------
NEAR_CONST
  Relative segment, address: 000023B4 - 000023BD (0xa bytes), align: 1
  Segment part 78.            Intra module refs:   Segment part 258
           ENTRY                   ADDRESS         REF BY
           =====                   =======         ======
           Font8x8_char_76         000023B4 
    -------------------------------------------------------------------------
NEAR_CONST
  Relative segment, address: 000023BE - 000023C7 (0xa bytes), align: 1
  Segment part 79.            Intra module refs:   Segment part 258
           ENTRY                   ADDRESS         REF BY
           =====                   =======         ======
           Font8x8_char_77         000023BE 
    -------------------------------------------------------------------------
NEAR_CONST
  Relative segment, address: 000023C8 - 000023D1 (0xa bytes), align: 1
  Segment part 80.            Intra module refs:   Segment part 258
           ENTRY                   ADDRESS         REF BY
           =====                   =======         ======
           Font8x8_char_78         000023C8 
    -------------------------------------------------------------------------
NEAR_CONST
  Relative segment, address: 000023D2 - 000023DB (0xa bytes), align: 1
  Segment part 81.            Intra module refs:   Segment part 258
           ENTRY                   ADDRESS         REF BY
           =====                   =======         ======
           Font8x8_char_79         000023D2 
    -------------------------------------------------------------------------
NEAR_CONST
  Relative segment, address: 000023DC - 000023E5 (0xa bytes), align: 1
  Segment part 82.            Intra module refs:   Segment part 258
           ENTRY                   ADDRESS         REF BY
           =====                   =======         ======
           Font8x8_char_80         000023DC 
    -------------------------------------------------------------------------
NEAR_CONST
  Relative segment, address: 000023E6 - 000023EF (0xa bytes), align: 1
  Segment part 83.            Intra module refs:   Segment part 258
           ENTRY                   ADDRESS         REF BY
           =====                   =======         ======
           Font8x8_char_81         000023E6 
    -------------------------------------------------------------------------
NEAR_CONST
  Relative segment, address: 000023F0 - 000023F9 (0xa bytes), align: 1
  Segment part 84.            Intra module refs:   Segment part 258
           ENTRY                   ADDRESS         REF BY
           =====                   =======         ======
           Font8x8_char_82         000023F0 
    -------------------------------------------------------------------------
NEAR_CONST
  Relative segment, address: 000023FA - 00002403 (0xa bytes), align: 1
  Segment part 85.            Intra module refs:   Segment part 258
           ENTRY                   ADDRESS         REF BY
           =====                   =======         ======
           Font8x8_char_83         000023FA 
    -------------------------------------------------------------------------
NEAR_CONST
  Relative segment, address: 00002404 - 0000240D (0xa bytes), align: 1
  Segment part 86.            Intra module refs:   Segment part 258
           ENTRY                   ADDRESS         REF BY
           =====                   =======         ======
           Font8x8_char_84         00002404 
    -------------------------------------------------------------------------
NEAR_CONST
  Relative segment, address: 0000240E - 00002417 (0xa bytes), align: 1
  Segment part 87.            Intra module refs:   Segment part 258
           ENTRY                   ADDRESS         REF BY
           =====                   =======         ======
           Font8x8_char_85         0000240E 
    -------------------------------------------------------------------------
NEAR_CONST
  Relative segment, address: 00002418 - 00002421 (0xa bytes), align: 1
  Segment part 88.            Intra module refs:   Segment part 258
           ENTRY                   ADDRESS         REF BY
           =====                   =======         ======
           Font8x8_char_86         00002418 
    -------------------------------------------------------------------------
NEAR_CONST
  Relative segment, address: 00002422 - 0000242B (0xa bytes), align: 1
  Segment part 89.            Intra module refs:   Segment part 258
           ENTRY                   ADDRESS         REF BY
           =====                   =======         ======
           Font8x8_char_87         00002422 
    -------------------------------------------------------------------------
NEAR_CONST
  Relative segment, address: 0000242C - 00002435 (0xa bytes), align: 1
  Segment part 90.            Intra module refs:   Segment part 258
           ENTRY                   ADDRESS         REF BY
           =====                   =======         ======
           Font8x8_char_88         0000242C 
    -------------------------------------------------------------------------
NEAR_CONST
  Relative segment, address: 00002436 - 0000243F (0xa bytes), align: 1
  Segment part 91.            Intra module refs:   Segment part 258
           ENTRY                   ADDRESS         REF BY
           =====                   =======         ======
           Font8x8_char_89         00002436 
    -------------------------------------------------------------------------
NEAR_CONST
  Relative segment, address: 00002440 - 00002449 (0xa bytes), align: 1
  Segment part 92.            Intra module refs:   Segment part 258
           ENTRY                   ADDRESS         REF BY
           =====                   =======         ======
           Font8x8_char_90         00002440 
    -------------------------------------------------------------------------
NEAR_CONST
  Relative segment, address: 0000244A - 00002453 (0xa bytes), align: 1
  Segment part 93.            Intra module refs:   Segment part 258
           ENTRY                   ADDRESS         REF BY
           =====                   =======         ======
           Font8x8_char_91         0000244A 
    -------------------------------------------------------------------------
NEAR_CONST
  Relative segment, address: 00002454 - 0000245D (0xa bytes), align: 1
  Segment part 94.            Intra module refs:   Segment part 258
           ENTRY                   ADDRESS         REF BY
           =====                   =======         ======
           Font8x8_char_92         00002454 
    -------------------------------------------------------------------------
NEAR_CONST
  Relative segment, address: 0000245E - 00002467 (0xa bytes), align: 1
  Segment part 95.            Intra module refs:   Segment part 258
           ENTRY                   ADDRESS         REF BY
           =====                   =======         ======
           Font8x8_char_93         0000245E 
    -------------------------------------------------------------------------
NEAR_CONST
  Relative segment, address: 00002468 - 00002471 (0xa bytes), align: 1
  Segment part 96.            Intra module refs:   Segment part 258
           ENTRY                   ADDRESS         REF BY
           =====                   =======         ======
           Font8x8_char_94         00002468 
    -------------------------------------------------------------------------
NEAR_CONST
  Relative segment, address: 00002472 - 0000247B (0xa bytes), align: 1
  Segment part 97.            Intra module refs:   Segment part 258
           ENTRY                   ADDRESS         REF BY
           =====                   =======         ======
           Font8x8_char_95         00002472 
    -------------------------------------------------------------------------
NEAR_CONST
  Relative segment, address: 0000247C - 00002485 (0xa bytes), align: 1
  Segment part 98.            Intra module refs:   Segment part 258
           ENTRY                   ADDRESS         REF BY
           =====                   =======         ======
           Font8x8_char_96         0000247C 
    -------------------------------------------------------------------------
NEAR_CONST
  Relative segment, address: 00002486 - 0000248F (0xa bytes), align: 1
  Segment part 99.            Intra module refs:   Segment part 258
           ENTRY                   ADDRESS         REF BY
           =====                   =======         ======
           Font8x8_char_97         00002486 
    -------------------------------------------------------------------------
NEAR_CONST
  Relative segment, address: 00002490 - 00002499 (0xa bytes), align: 1
  Segment part 100.           Intra module refs:   Segment part 258
           ENTRY                   ADDRESS         REF BY
           =====                   =======         ======
           Font8x8_char_98         00002490 
    -------------------------------------------------------------------------
NEAR_CONST
  Relative segment, address: 0000249A - 000024A3 (0xa bytes), align: 1
  Segment part 101.           Intra module refs:   Segment part 258
           ENTRY                   ADDRESS         REF BY
           =====                   =======         ======
           Font8x8_char_99         0000249A 
    -------------------------------------------------------------------------
NEAR_CONST
  Relative segment, address: 000024A4 - 000024AD (0xa bytes), align: 1
  Segment part 102.           Intra module refs:   Segment part 258
           ENTRY                   ADDRESS         REF BY
           =====                   =======         ======
           Font8x8_char_100        000024A4 
    -------------------------------------------------------------------------
NEAR_CONST
  Relative segment, address: 000024AE - 000024B7 (0xa bytes), align: 1
  Segment part 103.           Intra module refs:   Segment part 258
           ENTRY                   ADDRESS         REF BY
           =====                   =======         ======
           Font8x8_char_101        000024AE 
    -------------------------------------------------------------------------
NEAR_CONST
  Relative segment, address: 000024B8 - 000024C1 (0xa bytes), align: 1
  Segment part 104.           Intra module refs:   Segment part 258
           ENTRY                   ADDRESS         REF BY
           =====                   =======         ======
           Font8x8_char_102        000024B8 
    -------------------------------------------------------------------------
NEAR_CONST
  Relative segment, address: 000024C2 - 000024CB (0xa bytes), align: 1
  Segment part 105.           Intra module refs:   Segment part 258
           ENTRY                   ADDRESS         REF BY
           =====                   =======         ======
           Font8x8_char_103        000024C2 
    -------------------------------------------------------------------------
NEAR_CONST
  Relative segment, address: 000024CC - 000024D5 (0xa bytes), align: 1
  Segment part 106.           Intra module refs:   Segment part 258
           ENTRY                   ADDRESS         REF BY
           =====                   =======         ======
           Font8x8_char_104        000024CC 
    -------------------------------------------------------------------------
NEAR_CONST
  Relative segment, address: 000024D6 - 000024DF (0xa bytes), align: 1
  Segment part 107.           Intra module refs:   Segment part 258
           ENTRY                   ADDRESS         REF BY
           =====                   =======         ======
           Font8x8_char_105        000024D6 
    -------------------------------------------------------------------------
NEAR_CONST
  Relative segment, address: 000024E0 - 000024E9 (0xa bytes), align: 1
  Segment part 108.           Intra module refs:   Segment part 258
           ENTRY                   ADDRESS         REF BY
           =====                   =======         ======
           Font8x8_char_106        000024E0 
    -------------------------------------------------------------------------
NEAR_CONST
  Relative segment, address: 000024EA - 000024F3 (0xa bytes), align: 1
  Segment part 109.           Intra module refs:   Segment part 258
           ENTRY                   ADDRESS         REF BY
           =====                   =======         ======
           Font8x8_char_107        000024EA 
    -------------------------------------------------------------------------
NEAR_CONST
  Relative segment, address: 000024F4 - 000024FD (0xa bytes), align: 1
  Segment part 110.           Intra module refs:   Segment part 258
           ENTRY                   ADDRESS         REF BY
           =====                   =======         ======
           Font8x8_char_108        000024F4 
    -------------------------------------------------------------------------
NEAR_CONST
  Relative segment, address: 000024FE - 00002507 (0xa bytes), align: 1
  Segment part 111.           Intra module refs:   Segment part 258
           ENTRY                   ADDRESS         REF BY
           =====                   =======         ======
           Font8x8_char_109        000024FE 
    -------------------------------------------------------------------------
NEAR_CONST
  Relative segment, address: 00002508 - 00002511 (0xa bytes), align: 1
  Segment part 112.           Intra module refs:   Segment part 258
           ENTRY                   ADDRESS         REF BY
           =====                   =======         ======
           Font8x8_char_110        00002508 
    -------------------------------------------------------------------------
NEAR_CONST
  Relative segment, address: 00002512 - 0000251B (0xa bytes), align: 1
  Segment part 113.           Intra module refs:   Segment part 258
           ENTRY                   ADDRESS         REF BY
           =====                   =======         ======
           Font8x8_char_111        00002512 
    -------------------------------------------------------------------------
NEAR_CONST
  Relative segment, address: 0000251C - 00002525 (0xa bytes), align: 1
  Segment part 114.           Intra module refs:   Segment part 258
           ENTRY                   ADDRESS         REF BY
           =====                   =======         ======
           Font8x8_char_112        0000251C 
    -------------------------------------------------------------------------
NEAR_CONST
  Relative segment, address: 00002526 - 0000252F (0xa bytes), align: 1
  Segment part 115.           Intra module refs:   Segment part 258
           ENTRY                   ADDRESS         REF BY
           =====                   =======         ======
           Font8x8_char_113        00002526 
    -------------------------------------------------------------------------
NEAR_CONST
  Relative segment, address: 00002530 - 00002539 (0xa bytes), align: 1
  Segment part 116.           Intra module refs:   Segment part 258
           ENTRY                   ADDRESS         REF BY
           =====                   =======         ======
           Font8x8_char_114        00002530 
    -------------------------------------------------------------------------
NEAR_CONST
  Relative segment, address: 0000253A - 00002543 (0xa bytes), align: 1
  Segment part 117.           Intra module refs:   Segment part 258
           ENTRY                   ADDRESS         REF BY
           =====                   =======         ======
           Font8x8_char_115        0000253A 
    -------------------------------------------------------------------------
NEAR_CONST
  Relative segment, address: 00002544 - 0000254D (0xa bytes), align: 1
  Segment part 118.           Intra module refs:   Segment part 258
           ENTRY                   ADDRESS         REF BY
           =====                   =======         ======
           Font8x8_char_116        00002544 
    -------------------------------------------------------------------------
NEAR_CONST
  Relative segment, address: 0000254E - 00002557 (0xa bytes), align: 1
  Segment part 119.           Intra module refs:   Segment part 258
           ENTRY                   ADDRESS         REF BY
           =====                   =======         ======
           Font8x8_char_117        0000254E 
    -------------------------------------------------------------------------
NEAR_CONST
  Relative segment, address: 00002558 - 00002561 (0xa bytes), align: 1
  Segment part 120.           Intra module refs:   Segment part 258
           ENTRY                   ADDRESS         REF BY
           =====                   =======         ======
           Font8x8_char_118        00002558 
    -------------------------------------------------------------------------
NEAR_CONST
  Relative segment, address: 00002562 - 0000256B (0xa bytes), align: 1
  Segment part 121.           Intra module refs:   Segment part 258
           ENTRY                   ADDRESS         REF BY
           =====                   =======         ======
           Font8x8_char_119        00002562 
    -------------------------------------------------------------------------
NEAR_CONST
  Relative segment, address: 0000256C - 00002575 (0xa bytes), align: 1
  Segment part 122.           Intra module refs:   Segment part 258
           ENTRY                   ADDRESS         REF BY
           =====                   =======         ======
           Font8x8_char_120        0000256C 
    -------------------------------------------------------------------------
NEAR_CONST
  Relative segment, address: 00002576 - 0000257F (0xa bytes), align: 1
  Segment part 123.           Intra module refs:   Segment part 258
           ENTRY                   ADDRESS         REF BY
           =====                   =======         ======
           Font8x8_char_121        00002576 
    -------------------------------------------------------------------------
NEAR_CONST
  Relative segment, address: 00002580 - 00002589 (0xa bytes), align: 1
  Segment part 124.           Intra module refs:   Segment part 258
           ENTRY                   ADDRESS         REF BY
           =====                   =======         ======
           Font8x8_char_122        00002580 
    -------------------------------------------------------------------------
NEAR_CONST
  Relative segment, address: 0000258A - 00002593 (0xa bytes), align: 1
  Segment part 125.           Intra module refs:   Segment part 258
           ENTRY                   ADDRESS         REF BY
           =====                   =======         ======
           Font8x8_char_123        0000258A 
    -------------------------------------------------------------------------
NEAR_CONST
  Relative segment, address: 00002594 - 0000259D (0xa bytes), align: 1
  Segment part 126.           Intra module refs:   Segment part 258
           ENTRY                   ADDRESS         REF BY
           =====                   =======         ======
           Font8x8_char_124        00002594 
    -------------------------------------------------------------------------
NEAR_CONST
  Relative segment, address: 0000259E - 000025A7 (0xa bytes), align: 1
  Segment part 127.           Intra module refs:   Segment part 258
           ENTRY                   ADDRESS         REF BY
           =====                   =======         ======
           Font8x8_char_125        0000259E 
    -------------------------------------------------------------------------
NEAR_CONST
  Relative segment, address: 000025A8 - 000025B1 (0xa bytes), align: 1
  Segment part 128.           Intra module refs:   Segment part 258
           ENTRY                   ADDRESS         REF BY
           =====                   =======         ======
           Font8x8_char_126        000025A8 
    -------------------------------------------------------------------------
NEAR_CONST
  Relative segment, address: 000025B2 - 000025BB (0xa bytes), align: 1
  Segment part 129.           Intra module refs:   Segment part 258
           ENTRY                   ADDRESS         REF BY
           =====                   =======         ======
           Font8x8_char_127        000025B2 
    -------------------------------------------------------------------------
NEAR_CONST
  Relative segment, address: 000025BC - 000025C5 (0xa bytes), align: 1
  Segment part 130.           Intra module refs:   Segment part 258
           ENTRY                   ADDRESS         REF BY
           =====                   =======         ======
           Font8x8_char_128        000025BC 
    -------------------------------------------------------------------------
NEAR_CONST
  Relative segment, address: 000025C6 - 000025CF (0xa bytes), align: 1
  Segment part 131.           Intra module refs:   Segment part 258
           ENTRY                   ADDRESS         REF BY
           =====                   =======         ======
           Font8x8_char_129        000025C6 
    -------------------------------------------------------------------------
NEAR_CONST
  Relative segment, address: 000025D0 - 000025D9 (0xa bytes), align: 1
  Segment part 132.           Intra module refs:   Segment part 258
           ENTRY                   ADDRESS         REF BY
           =====                   =======         ======
           Font8x8_char_130        000025D0 
    -------------------------------------------------------------------------
NEAR_CONST
  Relative segment, address: 000025DA - 000025E3 (0xa bytes), align: 1
  Segment part 133.           Intra module refs:   Segment part 258
           ENTRY                   ADDRESS         REF BY
           =====                   =======         ======
           Font8x8_char_131        000025DA 
    -------------------------------------------------------------------------
NEAR_CONST
  Relative segment, address: 000025E4 - 000025ED (0xa bytes), align: 1
  Segment part 134.           Intra module refs:   Segment part 258
           ENTRY                   ADDRESS         REF BY
           =====                   =======         ======
           Font8x8_char_132        000025E4 
    -------------------------------------------------------------------------
NEAR_CONST
  Relative segment, address: 000025EE - 000025F7 (0xa bytes), align: 1
  Segment part 135.           Intra module refs:   Segment part 258
           ENTRY                   ADDRESS         REF BY
           =====                   =======         ======
           Font8x8_char_133        000025EE 
    -------------------------------------------------------------------------
NEAR_CONST
  Relative segment, address: 000025F8 - 00002601 (0xa bytes), align: 1
  Segment part 136.           Intra module refs:   Segment part 258
           ENTRY                   ADDRESS         REF BY
           =====                   =======         ======
           Font8x8_char_134        000025F8 
    -------------------------------------------------------------------------
NEAR_CONST
  Relative segment, address: 00002602 - 0000260B (0xa bytes), align: 1
  Segment part 137.           Intra module refs:   Segment part 258
           ENTRY                   ADDRESS         REF BY
           =====                   =======         ======
           Font8x8_char_135        00002602 
    -------------------------------------------------------------------------
NEAR_CONST
  Relative segment, address: 0000260C - 00002615 (0xa bytes), align: 1
  Segment part 138.           Intra module refs:   Segment part 258
           ENTRY                   ADDRESS         REF BY
           =====                   =======         ======
           Font8x8_char_136        0000260C 
    -------------------------------------------------------------------------
NEAR_CONST
  Relative segment, address: 00002616 - 0000261F (0xa bytes), align: 1
  Segment part 139.           Intra module refs:   Segment part 258
           ENTRY                   ADDRESS         REF BY
           =====                   =======         ======
           Font8x8_char_137        00002616 
    -------------------------------------------------------------------------
NEAR_CONST
  Relative segment, address: 00002620 - 00002629 (0xa bytes), align: 1
  Segment part 140.           Intra module refs:   Segment part 258
           ENTRY                   ADDRESS         REF BY
           =====                   =======         ======
           Font8x8_char_138        00002620 
    -------------------------------------------------------------------------
NEAR_CONST
  Relative segment, address: 0000262A - 00002633 (0xa bytes), align: 1
  Segment part 141.           Intra module refs:   Segment part 258
           ENTRY                   ADDRESS         REF BY
           =====                   =======         ======
           Font8x8_char_139        0000262A 
    -------------------------------------------------------------------------
NEAR_CONST
  Relative segment, address: 00002634 - 0000263D (0xa bytes), align: 1
  Segment part 142.           Intra module refs:   Segment part 258
           ENTRY                   ADDRESS         REF BY
           =====                   =======         ======
           Font8x8_char_140        00002634 
    -------------------------------------------------------------------------
NEAR_CONST
  Relative segment, address: 0000263E - 00002647 (0xa bytes), align: 1
  Segment part 143.           Intra module refs:   Segment part 258
           ENTRY                   ADDRESS         REF BY
           =====                   =======         ======
           Font8x8_char_141        0000263E 
    -------------------------------------------------------------------------
NEAR_CONST
  Relative segment, address: 00002648 - 00002651 (0xa bytes), align: 1
  Segment part 144.           Intra module refs:   Segment part 258
           ENTRY                   ADDRESS         REF BY
           =====                   =======         ======
           Font8x8_char_142        00002648 
    -------------------------------------------------------------------------
NEAR_CONST
  Relative segment, address: 00002652 - 0000265B (0xa bytes), align: 1
  Segment part 145.           Intra module refs:   Segment part 258
           ENTRY                   ADDRESS         REF BY
           =====                   =======         ======
           Font8x8_char_143        00002652 
    -------------------------------------------------------------------------
NEAR_CONST
  Relative segment, address: 0000265C - 00002665 (0xa bytes), align: 1
  Segment part 146.           Intra module refs:   Segment part 258
           ENTRY                   ADDRESS         REF BY
           =====                   =======         ======
           Font8x8_char_144        0000265C 
    -------------------------------------------------------------------------
NEAR_CONST
  Relative segment, address: 00002666 - 0000266F (0xa bytes), align: 1
  Segment part 147.           Intra module refs:   Segment part 258
           ENTRY                   ADDRESS         REF BY
           =====                   =======         ======
           Font8x8_char_145        00002666 
    -------------------------------------------------------------------------
NEAR_CONST
  Relative segment, address: 00002670 - 00002679 (0xa bytes), align: 1
  Segment part 148.           Intra module refs:   Segment part 258
           ENTRY                   ADDRESS         REF BY
           =====                   =======         ======
           Font8x8_char_146        00002670 
    -------------------------------------------------------------------------
NEAR_CONST
  Relative segment, address: 0000267A - 00002683 (0xa bytes), align: 1
  Segment part 149.           Intra module refs:   Segment part 258
           ENTRY                   ADDRESS         REF BY
           =====                   =======         ======
           Font8x8_char_147        0000267A 
    -------------------------------------------------------------------------
NEAR_CONST
  Relative segment, address: 00002684 - 0000268D (0xa bytes), align: 1
  Segment part 150.           Intra module refs:   Segment part 258
           ENTRY                   ADDRESS         REF BY
           =====                   =======         ======
           Font8x8_char_148        00002684 
    -------------------------------------------------------------------------
NEAR_CONST
  Relative segment, address: 0000268E - 00002697 (0xa bytes), align: 1
  Segment part 151.           Intra module refs:   Segment part 258
           ENTRY                   ADDRESS         REF BY
           =====                   =======         ======
           Font8x8_char_149        0000268E 
    -------------------------------------------------------------------------
NEAR_CONST
  Relative segment, address: 00002698 - 000026A1 (0xa bytes), align: 1
  Segment part 152.           Intra module refs:   Segment part 258
           ENTRY                   ADDRESS         REF BY
           =====                   =======         ======
           Font8x8_char_150        00002698 
    -------------------------------------------------------------------------
NEAR_CONST
  Relative segment, address: 000026A2 - 000026AB (0xa bytes), align: 1
  Segment part 153.           Intra module refs:   Segment part 258
           ENTRY                   ADDRESS         REF BY
           =====                   =======         ======
           Font8x8_char_151        000026A2 
    -------------------------------------------------------------------------
NEAR_CONST
  Relative segment, address: 000026AC - 000026B5 (0xa bytes), align: 1
  Segment part 154.           Intra module refs:   Segment part 258
           ENTRY                   ADDRESS         REF BY
           =====                   =======         ======
           Font8x8_char_152        000026AC 
    -------------------------------------------------------------------------
NEAR_CONST
  Relative segment, address: 000026B6 - 000026BF (0xa bytes), align: 1
  Segment part 155.           Intra module refs:   Segment part 258
           ENTRY                   ADDRESS         REF BY
           =====                   =======         ======
           Font8x8_char_153        000026B6 
    -------------------------------------------------------------------------
NEAR_CONST
  Relative segment, address: 000026C0 - 000026C9 (0xa bytes), align: 1
  Segment part 156.           Intra module refs:   Segment part 258
           ENTRY                   ADDRESS         REF BY
           =====                   =======         ======
           Font8x8_char_154        000026C0 
    -------------------------------------------------------------------------
NEAR_CONST
  Relative segment, address: 000026CA - 000026D3 (0xa bytes), align: 1
  Segment part 157.           Intra module refs:   Segment part 258
           ENTRY                   ADDRESS         REF BY
           =====                   =======         ======
           Font8x8_char_155        000026CA 
    -------------------------------------------------------------------------
NEAR_CONST
  Relative segment, address: 000026D4 - 000026DD (0xa bytes), align: 1
  Segment part 158.           Intra module refs:   Segment part 258
           ENTRY                   ADDRESS         REF BY
           =====                   =======         ======
           Font8x8_char_156        000026D4 
    -------------------------------------------------------------------------
NEAR_CONST
  Relative segment, address: 000026DE - 000026E7 (0xa bytes), align: 1
  Segment part 159.           Intra module refs:   Segment part 258
           ENTRY                   ADDRESS         REF BY
           =====                   =======         ======
           Font8x8_char_157        000026DE 
    -------------------------------------------------------------------------
NEAR_CONST
  Relative segment, address: 000026E8 - 000026F1 (0xa bytes), align: 1
  Segment part 160.           Intra module refs:   Segment part 258
           ENTRY                   ADDRESS         REF BY
           =====                   =======         ======
           Font8x8_char_158        000026E8 
    -------------------------------------------------------------------------
NEAR_CONST
  Relative segment, address: 000026F2 - 000026FB (0xa bytes), align: 1
  Segment part 161.           Intra module refs:   Segment part 258
           ENTRY                   ADDRESS         REF BY
           =====                   =======         ======
           Font8x8_char_159        000026F2 
    -------------------------------------------------------------------------
NEAR_CONST
  Relative segment, address: 000026FC - 00002705 (0xa bytes), align: 1
  Segment part 162.           Intra module refs:   Segment part 258
           ENTRY                   ADDRESS         REF BY
           =====                   =======         ======
           Font8x8_char_160        000026FC 
    -------------------------------------------------------------------------
NEAR_CONST
  Relative segment, address: 00002706 - 0000270F (0xa bytes), align: 1
  Segment part 163.           Intra module refs:   Segment part 258
           ENTRY                   ADDRESS         REF BY
           =====                   =======         ======
           Font8x8_char_161        00002706 
    -------------------------------------------------------------------------
NEAR_CONST
  Relative segment, address: 00002710 - 00002719 (0xa bytes), align: 1
  Segment part 164.           Intra module refs:   Segment part 258
           ENTRY                   ADDRESS         REF BY
           =====                   =======         ======
           Font8x8_char_162        00002710 
    -------------------------------------------------------------------------
NEAR_CONST
  Relative segment, address: 0000271A - 00002723 (0xa bytes), align: 1
  Segment part 165.           Intra module refs:   Segment part 258
           ENTRY                   ADDRESS         REF BY
           =====                   =======         ======
           Font8x8_char_163        0000271A 
    -------------------------------------------------------------------------
NEAR_CONST
  Relative segment, address: 00002724 - 0000272D (0xa bytes), align: 1
  Segment part 166.           Intra module refs:   Segment part 258
           ENTRY                   ADDRESS         REF BY
           =====                   =======         ======
           Font8x8_char_164        00002724 
    -------------------------------------------------------------------------
NEAR_CONST
  Relative segment, address: 0000272E - 00002737 (0xa bytes), align: 1
  Segment part 167.           Intra module refs:   Segment part 258
           ENTRY                   ADDRESS         REF BY
           =====                   =======         ======
           Font8x8_char_165        0000272E 
    -------------------------------------------------------------------------
NEAR_CONST
  Relative segment, address: 00002738 - 00002741 (0xa bytes), align: 1
  Segment part 168.           Intra module refs:   Segment part 258
           ENTRY                   ADDRESS         REF BY
           =====                   =======         ======
           Font8x8_char_166        00002738 
    -------------------------------------------------------------------------
NEAR_CONST
  Relative segment, address: 00002742 - 0000274B (0xa bytes), align: 1
  Segment part 169.           Intra module refs:   Segment part 258
           ENTRY                   ADDRESS         REF BY
           =====                   =======         ======
           Font8x8_char_167        00002742 
    -------------------------------------------------------------------------
NEAR_CONST
  Relative segment, address: 0000274C - 00002755 (0xa bytes), align: 1
  Segment part 170.           Intra module refs:   Segment part 258
           ENTRY                   ADDRESS         REF BY
           =====                   =======         ======
           Font8x8_char_168        0000274C 
    -------------------------------------------------------------------------
NEAR_CONST
  Relative segment, address: 00002756 - 0000275F (0xa bytes), align: 1
  Segment part 171.           Intra module refs:   Segment part 258
           ENTRY                   ADDRESS         REF BY
           =====                   =======         ======
           Font8x8_char_169        00002756 
    -------------------------------------------------------------------------
NEAR_CONST
  Relative segment, address: 00002760 - 00002769 (0xa bytes), align: 1
  Segment part 172.           Intra module refs:   Segment part 258
           ENTRY                   ADDRESS         REF BY
           =====                   =======         ======
           Font8x8_char_170        00002760 
    -------------------------------------------------------------------------
NEAR_CONST
  Relative segment, address: 0000276A - 00002773 (0xa bytes), align: 1
  Segment part 173.           Intra module refs:   Segment part 258
           ENTRY                   ADDRESS         REF BY
           =====                   =======         ======
           Font8x8_char_171        0000276A 
    -------------------------------------------------------------------------
NEAR_CONST
  Relative segment, address: 00002774 - 0000277D (0xa bytes), align: 1
  Segment part 174.           Intra module refs:   Segment part 258
           ENTRY                   ADDRESS         REF BY
           =====                   =======         ======
           Font8x8_char_172        00002774 
    -------------------------------------------------------------------------
NEAR_CONST
  Relative segment, address: 0000277E - 00002787 (0xa bytes), align: 1
  Segment part 175.           Intra module refs:   Segment part 258
           ENTRY                   ADDRESS         REF BY
           =====                   =======         ======
           Font8x8_char_173        0000277E 
    -------------------------------------------------------------------------
NEAR_CONST
  Relative segment, address: 00002788 - 00002791 (0xa bytes), align: 1
  Segment part 176.           Intra module refs:   Segment part 258
           ENTRY                   ADDRESS         REF BY
           =====                   =======         ======
           Font8x8_char_174        00002788 
    -------------------------------------------------------------------------
NEAR_CONST
  Relative segment, address: 00002792 - 0000279B (0xa bytes), align: 1
  Segment part 177.           Intra module refs:   Segment part 258
           ENTRY                   ADDRESS         REF BY
           =====                   =======         ======
           Font8x8_char_175        00002792 
    -------------------------------------------------------------------------
NEAR_CONST
  Relative segment, address: 0000279C - 000027A5 (0xa bytes), align: 1
  Segment part 178.           Intra module refs:   Segment part 258
           ENTRY                   ADDRESS         REF BY
           =====                   =======         ======
           Font8x8_char_176        0000279C 
    -------------------------------------------------------------------------
NEAR_CONST
  Relative segment, address: 000027A6 - 000027AF (0xa bytes), align: 1
  Segment part 179.           Intra module refs:   Segment part 258
           ENTRY                   ADDRESS         REF BY
           =====                   =======         ======
           Font8x8_char_177        000027A6 
    -------------------------------------------------------------------------
NEAR_CONST
  Relative segment, address: 000027B0 - 000027B9 (0xa bytes), align: 1
  Segment part 180.           Intra module refs:   Segment part 258
           ENTRY                   ADDRESS         REF BY
           =====                   =======         ======
           Font8x8_char_178        000027B0 
    -------------------------------------------------------------------------
NEAR_CONST
  Relative segment, address: 000027BA - 000027C3 (0xa bytes), align: 1
  Segment part 181.           Intra module refs:   Segment part 258
           ENTRY                   ADDRESS         REF BY
           =====                   =======         ======
           Font8x8_char_179        000027BA 
    -------------------------------------------------------------------------
NEAR_CONST
  Relative segment, address: 000027C4 - 000027CD (0xa bytes), align: 1
  Segment part 182.           Intra module refs:   Segment part 258
           ENTRY                   ADDRESS         REF BY
           =====                   =======         ======
           Font8x8_char_180        000027C4 
    -------------------------------------------------------------------------
NEAR_CONST
  Relative segment, address: 000027CE - 000027D7 (0xa bytes), align: 1
  Segment part 183.           Intra module refs:   Segment part 258
           ENTRY                   ADDRESS         REF BY
           =====                   =======         ======
           Font8x8_char_181        000027CE 
    -------------------------------------------------------------------------
NEAR_CONST
  Relative segment, address: 000027D8 - 000027E1 (0xa bytes), align: 1
  Segment part 184.           Intra module refs:   Segment part 258
           ENTRY                   ADDRESS         REF BY
           =====                   =======         ======
           Font8x8_char_182        000027D8 
    -------------------------------------------------------------------------
NEAR_CONST
  Relative segment, address: 000027E2 - 000027EB (0xa bytes), align: 1
  Segment part 185.           Intra module refs:   Segment part 258
           ENTRY                   ADDRESS         REF BY
           =====                   =======         ======
           Font8x8_char_183        000027E2 
    -------------------------------------------------------------------------
NEAR_CONST
  Relative segment, address: 000027EC - 000027F5 (0xa bytes), align: 1
  Segment part 186.           Intra module refs:   Segment part 258
           ENTRY                   ADDRESS         REF BY
           =====                   =======         ======
           Font8x8_char_184        000027EC 
    -------------------------------------------------------------------------
NEAR_CONST
  Relative segment, address: 000027F6 - 000027FF (0xa bytes), align: 1
  Segment part 187.           Intra module refs:   Segment part 258
           ENTRY                   ADDRESS         REF BY
           =====                   =======         ======
           Font8x8_char_185        000027F6 
    -------------------------------------------------------------------------
NEAR_CONST
  Relative segment, address: 00002800 - 00002809 (0xa bytes), align: 1
  Segment part 188.           Intra module refs:   Segment part 258
           ENTRY                   ADDRESS         REF BY
           =====                   =======         ======
           Font8x8_char_186        00002800 
    -------------------------------------------------------------------------
NEAR_CONST
  Relative segment, address: 0000280A - 00002813 (0xa bytes), align: 1
  Segment part 189.           Intra module refs:   Segment part 258
           ENTRY                   ADDRESS         REF BY
           =====                   =======         ======
           Font8x8_char_187        0000280A 
    -------------------------------------------------------------------------
NEAR_CONST
  Relative segment, address: 00002814 - 0000281D (0xa bytes), align: 1
  Segment part 190.           Intra module refs:   Segment part 258
           ENTRY                   ADDRESS         REF BY
           =====                   =======         ======
           Font8x8_char_188        00002814 
    -------------------------------------------------------------------------
NEAR_CONST
  Relative segment, address: 0000281E - 00002827 (0xa bytes), align: 1
  Segment part 191.           Intra module refs:   Segment part 258
           ENTRY                   ADDRESS         REF BY
           =====                   =======         ======
           Font8x8_char_189        0000281E 
    -------------------------------------------------------------------------
NEAR_CONST
  Relative segment, address: 00002828 - 00002831 (0xa bytes), align: 1
  Segment part 192.           Intra module refs:   Segment part 258
           ENTRY                   ADDRESS         REF BY
           =====                   =======         ======
           Font8x8_char_190        00002828 
    -------------------------------------------------------------------------
NEAR_CONST
  Relative segment, address: 00002832 - 0000283B (0xa bytes), align: 1
  Segment part 193.           Intra module refs:   Segment part 258
           ENTRY                   ADDRESS         REF BY
           =====                   =======         ======
           Font8x8_char_191        00002832 
    -------------------------------------------------------------------------
NEAR_CONST
  Relative segment, address: 0000283C - 00002845 (0xa bytes), align: 1
  Segment part 194.           Intra module refs:   Segment part 258
           ENTRY                   ADDRESS         REF BY
           =====                   =======         ======
           Font8x8_char_192        0000283C 
    -------------------------------------------------------------------------
NEAR_CONST
  Relative segment, address: 00002846 - 0000284F (0xa bytes), align: 1
  Segment part 195.           Intra module refs:   Segment part 258
           ENTRY                   ADDRESS         REF BY
           =====                   =======         ======
           Font8x8_char_193        00002846 
    -------------------------------------------------------------------------
NEAR_CONST
  Relative segment, address: 00002850 - 00002859 (0xa bytes), align: 1
  Segment part 196.           Intra module refs:   Segment part 258
           ENTRY                   ADDRESS         REF BY
           =====                   =======         ======
           Font8x8_char_194        00002850 
    -------------------------------------------------------------------------
NEAR_CONST
  Relative segment, address: 0000285A - 00002863 (0xa bytes), align: 1
  Segment part 197.           Intra module refs:   Segment part 258
           ENTRY                   ADDRESS         REF BY
           =====                   =======         ======
           Font8x8_char_195        0000285A 
    -------------------------------------------------------------------------
NEAR_CONST
  Relative segment, address: 00002864 - 0000286D (0xa bytes), align: 1
  Segment part 198.           Intra module refs:   Segment part 258
           ENTRY                   ADDRESS         REF BY
           =====                   =======         ======
           Font8x8_char_196        00002864 
    -------------------------------------------------------------------------
NEAR_CONST
  Relative segment, address: 0000286E - 00002877 (0xa bytes), align: 1
  Segment part 199.           Intra module refs:   Segment part 258
           ENTRY                   ADDRESS         REF BY
           =====                   =======         ======
           Font8x8_char_197        0000286E 
    -------------------------------------------------------------------------
NEAR_CONST
  Relative segment, address: 00002878 - 00002881 (0xa bytes), align: 1
  Segment part 200.           Intra module refs:   Segment part 258
           ENTRY                   ADDRESS         REF BY
           =====                   =======         ======
           Font8x8_char_198        00002878 
    -------------------------------------------------------------------------
NEAR_CONST
  Relative segment, address: 00002882 - 0000288B (0xa bytes), align: 1
  Segment part 201.           Intra module refs:   Segment part 258
           ENTRY                   ADDRESS         REF BY
           =====                   =======         ======
           Font8x8_char_199        00002882 
    -------------------------------------------------------------------------
NEAR_CONST
  Relative segment, address: 0000288C - 00002895 (0xa bytes), align: 1
  Segment part 202.           Intra module refs:   Segment part 258
           ENTRY                   ADDRESS         REF BY
           =====                   =======         ======
           Font8x8_char_200        0000288C 
    -------------------------------------------------------------------------
NEAR_CONST
  Relative segment, address: 00002896 - 0000289F (0xa bytes), align: 1
  Segment part 203.           Intra module refs:   Segment part 258
           ENTRY                   ADDRESS         REF BY
           =====                   =======         ======
           Font8x8_char_201        00002896 
    -------------------------------------------------------------------------
NEAR_CONST
  Relative segment, address: 000028A0 - 000028A9 (0xa bytes), align: 1
  Segment part 204.           Intra module refs:   Segment part 258
           ENTRY                   ADDRESS         REF BY
           =====                   =======         ======
           Font8x8_char_202        000028A0 
    -------------------------------------------------------------------------
NEAR_CONST
  Relative segment, address: 000028AA - 000028B3 (0xa bytes), align: 1
  Segment part 205.           Intra module refs:   Segment part 258
           ENTRY                   ADDRESS         REF BY
           =====                   =======         ======
           Font8x8_char_203        000028AA 
    -------------------------------------------------------------------------
NEAR_CONST
  Relative segment, address: 000028B4 - 000028BD (0xa bytes), align: 1
  Segment part 206.           Intra module refs:   Segment part 258
           ENTRY                   ADDRESS         REF BY
           =====                   =======         ======
           Font8x8_char_204        000028B4 
    -------------------------------------------------------------------------
NEAR_CONST
  Relative segment, address: 000028BE - 000028C7 (0xa bytes), align: 1
  Segment part 207.           Intra module refs:   Segment part 258
           ENTRY                   ADDRESS         REF BY
           =====                   =======         ======
           Font8x8_char_205        000028BE 
    -------------------------------------------------------------------------
NEAR_CONST
  Relative segment, address: 000028C8 - 000028D1 (0xa bytes), align: 1
  Segment part 208.           Intra module refs:   Segment part 258
           ENTRY                   ADDRESS         REF BY
           =====                   =======         ======
           Font8x8_char_206        000028C8 
    -------------------------------------------------------------------------
NEAR_CONST
  Relative segment, address: 000028D2 - 000028DB (0xa bytes), align: 1
  Segment part 209.           Intra module refs:   Segment part 258
           ENTRY                   ADDRESS         REF BY
           =====                   =======         ======
           Font8x8_char_207        000028D2 
    -------------------------------------------------------------------------
NEAR_CONST
  Relative segment, address: 000028DC - 000028E5 (0xa bytes), align: 1
  Segment part 210.           Intra module refs:   Segment part 258
           ENTRY                   ADDRESS         REF BY
           =====                   =======         ======
           Font8x8_char_208        000028DC 
    -------------------------------------------------------------------------
NEAR_CONST
  Relative segment, address: 000028E6 - 000028EF (0xa bytes), align: 1
  Segment part 211.           Intra module refs:   Segment part 258
           ENTRY                   ADDRESS         REF BY
           =====                   =======         ======
           Font8x8_char_209        000028E6 
    -------------------------------------------------------------------------
NEAR_CONST
  Relative segment, address: 000028F0 - 000028F9 (0xa bytes), align: 1
  Segment part 212.           Intra module refs:   Segment part 258
           ENTRY                   ADDRESS         REF BY
           =====                   =======         ======
           Font8x8_char_210        000028F0 
    -------------------------------------------------------------------------
NEAR_CONST
  Relative segment, address: 000028FA - 00002903 (0xa bytes), align: 1
  Segment part 213.           Intra module refs:   Segment part 258
           ENTRY                   ADDRESS         REF BY
           =====                   =======         ======
           Font8x8_char_211        000028FA 
    -------------------------------------------------------------------------
NEAR_CONST
  Relative segment, address: 00002904 - 0000290D (0xa bytes), align: 1
  Segment part 214.           Intra module refs:   Segment part 258
           ENTRY                   ADDRESS         REF BY
           =====                   =======         ======
           Font8x8_char_212        00002904 
    -------------------------------------------------------------------------
NEAR_CONST
  Relative segment, address: 0000290E - 00002917 (0xa bytes), align: 1
  Segment part 215.           Intra module refs:   Segment part 258
           ENTRY                   ADDRESS         REF BY
           =====                   =======         ======
           Font8x8_char_213        0000290E 
    -------------------------------------------------------------------------
NEAR_CONST
  Relative segment, address: 00002918 - 00002921 (0xa bytes), align: 1
  Segment part 216.           Intra module refs:   Segment part 258
           ENTRY                   ADDRESS         REF BY
           =====                   =======         ======
           Font8x8_char_214        00002918 
    -------------------------------------------------------------------------
NEAR_CONST
  Relative segment, address: 00002922 - 0000292B (0xa bytes), align: 1
  Segment part 217.           Intra module refs:   Segment part 258
           ENTRY                   ADDRESS         REF BY
           =====                   =======         ======
           Font8x8_char_215        00002922 
    -------------------------------------------------------------------------
NEAR_CONST
  Relative segment, address: 0000292C - 00002935 (0xa bytes), align: 1
  Segment part 218.           Intra module refs:   Segment part 258
           ENTRY                   ADDRESS         REF BY
           =====                   =======         ======
           Font8x8_char_216        0000292C 
    -------------------------------------------------------------------------
NEAR_CONST
  Relative segment, address: 00002936 - 0000293F (0xa bytes), align: 1
  Segment part 219.           Intra module refs:   Segment part 258
           ENTRY                   ADDRESS         REF BY
           =====                   =======         ======
           Font8x8_char_217        00002936 
    -------------------------------------------------------------------------
NEAR_CONST
  Relative segment, address: 00002940 - 00002949 (0xa bytes), align: 1
  Segment part 220.           Intra module refs:   Segment part 258
           ENTRY                   ADDRESS         REF BY
           =====                   =======         ======
           Font8x8_char_218        00002940 
    -------------------------------------------------------------------------
NEAR_CONST
  Relative segment, address: 0000294A - 00002953 (0xa bytes), align: 1
  Segment part 221.           Intra module refs:   Segment part 258
           ENTRY                   ADDRESS         REF BY
           =====                   =======         ======
           Font8x8_char_219        0000294A 
    -------------------------------------------------------------------------
NEAR_CONST
  Relative segment, address: 00002954 - 0000295D (0xa bytes), align: 1
  Segment part 222.           Intra module refs:   Segment part 258
           ENTRY                   ADDRESS         REF BY
           =====                   =======         ======
           Font8x8_char_220        00002954 
    -------------------------------------------------------------------------
NEAR_CONST
  Relative segment, address: 0000295E - 00002967 (0xa bytes), align: 1
  Segment part 223.           Intra module refs:   Segment part 258
           ENTRY                   ADDRESS         REF BY
           =====                   =======         ======
           Font8x8_char_221        0000295E 
    -------------------------------------------------------------------------
NEAR_CONST
  Relative segment, address: 00002968 - 00002971 (0xa bytes), align: 1
  Segment part 224.           Intra module refs:   Segment part 258
           ENTRY                   ADDRESS         REF BY
           =====                   =======         ======
           Font8x8_char_222        00002968 
    -------------------------------------------------------------------------
NEAR_CONST
  Relative segment, address: 00002972 - 0000297B (0xa bytes), align: 1
  Segment part 225.           Intra module refs:   Segment part 258
           ENTRY                   ADDRESS         REF BY
           =====                   =======         ======
           Font8x8_char_223        00002972 
    -------------------------------------------------------------------------
NEAR_CONST
  Relative segment, address: 0000297C - 00002985 (0xa bytes), align: 1
  Segment part 226.           Intra module refs:   Segment part 258
           ENTRY                   ADDRESS         REF BY
           =====                   =======         ======
           Font8x8_char_224        0000297C 
    -------------------------------------------------------------------------
NEAR_CONST
  Relative segment, address: 00002986 - 0000298F (0xa bytes), align: 1
  Segment part 227.           Intra module refs:   Segment part 258
           ENTRY                   ADDRESS         REF BY
           =====                   =======         ======
           Font8x8_char_225        00002986 
    -------------------------------------------------------------------------
NEAR_CONST
  Relative segment, address: 00002990 - 00002999 (0xa bytes), align: 1
  Segment part 228.           Intra module refs:   Segment part 258
           ENTRY                   ADDRESS         REF BY
           =====                   =======         ======
           Font8x8_char_226        00002990 
    -------------------------------------------------------------------------
NEAR_CONST
  Relative segment, address: 0000299A - 000029A3 (0xa bytes), align: 1
  Segment part 229.           Intra module refs:   Segment part 258
           ENTRY                   ADDRESS         REF BY
           =====                   =======         ======
           Font8x8_char_227        0000299A 
    -------------------------------------------------------------------------
NEAR_CONST
  Relative segment, address: 000029A4 - 000029AD (0xa bytes), align: 1
  Segment part 230.           Intra module refs:   Segment part 258
           ENTRY                   ADDRESS         REF BY
           =====                   =======         ======
           Font8x8_char_228        000029A4 
    -------------------------------------------------------------------------
NEAR_CONST
  Relative segment, address: 000029AE - 000029B7 (0xa bytes), align: 1
  Segment part 231.           Intra module refs:   Segment part 258
           ENTRY                   ADDRESS         REF BY
           =====                   =======         ======
           Font8x8_char_229        000029AE 
    -------------------------------------------------------------------------
NEAR_CONST
  Relative segment, address: 000029B8 - 000029C1 (0xa bytes), align: 1
  Segment part 232.           Intra module refs:   Segment part 258
           ENTRY                   ADDRESS         REF BY
           =====                   =======         ======
           Font8x8_char_230        000029B8 
    -------------------------------------------------------------------------
NEAR_CONST
  Relative segment, address: 000029C2 - 000029CB (0xa bytes), align: 1
  Segment part 233.           Intra module refs:   Segment part 258
           ENTRY                   ADDRESS         REF BY
           =====                   =======         ======
           Font8x8_char_231        000029C2 
    -------------------------------------------------------------------------
NEAR_CONST
  Relative segment, address: 000029CC - 000029D5 (0xa bytes), align: 1
  Segment part 234.           Intra module refs:   Segment part 258
           ENTRY                   ADDRESS         REF BY
           =====                   =======         ======
           Font8x8_char_232        000029CC 
    -------------------------------------------------------------------------
NEAR_CONST
  Relative segment, address: 000029D6 - 000029DF (0xa bytes), align: 1
  Segment part 235.           Intra module refs:   Segment part 258
           ENTRY                   ADDRESS         REF BY
           =====                   =======         ======
           Font8x8_char_233        000029D6 
    -------------------------------------------------------------------------
NEAR_CONST
  Relative segment, address: 000029E0 - 000029E9 (0xa bytes), align: 1
  Segment part 236.           Intra module refs:   Segment part 258
           ENTRY                   ADDRESS         REF BY
           =====                   =======         ======
           Font8x8_char_234        000029E0 
    -------------------------------------------------------------------------
NEAR_CONST
  Relative segment, address: 000029EA - 000029F3 (0xa bytes), align: 1
  Segment part 237.           Intra module refs:   Segment part 258
           ENTRY                   ADDRESS         REF BY
           =====                   =======         ======
           Font8x8_char_235        000029EA 
    -------------------------------------------------------------------------
NEAR_CONST
  Relative segment, address: 000029F4 - 000029FD (0xa bytes), align: 1
  Segment part 238.           Intra module refs:   Segment part 258
           ENTRY                   ADDRESS         REF BY
           =====                   =======         ======
           Font8x8_char_236        000029F4 
    -------------------------------------------------------------------------
NEAR_CONST
  Relative segment, address: 000029FE - 00002A07 (0xa bytes), align: 1
  Segment part 239.           Intra module refs:   Segment part 258
           ENTRY                   ADDRESS         REF BY
           =====                   =======         ======
           Font8x8_char_237        000029FE 
    -------------------------------------------------------------------------
NEAR_CONST
  Relative segment, address: 00002A08 - 00002A11 (0xa bytes), align: 1
  Segment part 240.           Intra module refs:   Segment part 258
           ENTRY                   ADDRESS         REF BY
           =====                   =======         ======
           Font8x8_char_238        00002A08 
    -------------------------------------------------------------------------
NEAR_CONST
  Relative segment, address: 00002A12 - 00002A1B (0xa bytes), align: 1
  Segment part 241.           Intra module refs:   Segment part 258
           ENTRY                   ADDRESS         REF BY
           =====                   =======         ======
           Font8x8_char_239        00002A12 
    -------------------------------------------------------------------------
NEAR_CONST
  Relative segment, address: 00002A1C - 00002A25 (0xa bytes), align: 1
  Segment part 242.           Intra module refs:   Segment part 258
           ENTRY                   ADDRESS         REF BY
           =====                   =======         ======
           Font8x8_char_240        00002A1C 
    -------------------------------------------------------------------------
NEAR_CONST
  Relative segment, address: 00002A26 - 00002A2F (0xa bytes), align: 1
  Segment part 243.           Intra module refs:   Segment part 258
           ENTRY                   ADDRESS         REF BY
           =====                   =======         ======
           Font8x8_char_241        00002A26 
    -------------------------------------------------------------------------
NEAR_CONST
  Relative segment, address: 00002A30 - 00002A39 (0xa bytes), align: 1
  Segment part 244.           Intra module refs:   Segment part 258
           ENTRY                   ADDRESS         REF BY
           =====                   =======         ======
           Font8x8_char_242        00002A30 
    -------------------------------------------------------------------------
NEAR_CONST
  Relative segment, address: 00002A3A - 00002A43 (0xa bytes), align: 1
  Segment part 245.           Intra module refs:   Segment part 258
           ENTRY                   ADDRESS         REF BY
           =====                   =======         ======
           Font8x8_char_243        00002A3A 
    -------------------------------------------------------------------------
NEAR_CONST
  Relative segment, address: 00002A44 - 00002A4D (0xa bytes), align: 1
  Segment part 246.           Intra module refs:   Segment part 258
           ENTRY                   ADDRESS         REF BY
           =====                   =======         ======
           Font8x8_char_244        00002A44 
    -------------------------------------------------------------------------
NEAR_CONST
  Relative segment, address: 00002A4E - 00002A57 (0xa bytes), align: 1
  Segment part 247.           Intra module refs:   Segment part 258
           ENTRY                   ADDRESS         REF BY
           =====                   =======         ======
           Font8x8_char_245        00002A4E 
    -------------------------------------------------------------------------
NEAR_CONST
  Relative segment, address: 00002A58 - 00002A61 (0xa bytes), align: 1
  Segment part 248.           Intra module refs:   Segment part 258
           ENTRY                   ADDRESS         REF BY
           =====                   =======         ======
           Font8x8_char_246        00002A58 
    -------------------------------------------------------------------------
NEAR_CONST
  Relative segment, address: 00002A62 - 00002A6B (0xa bytes), align: 1
  Segment part 249.           Intra module refs:   Segment part 258
           ENTRY                   ADDRESS         REF BY
           =====                   =======         ======
           Font8x8_char_247        00002A62 
    -------------------------------------------------------------------------
NEAR_CONST
  Relative segment, address: 00002A6C - 00002A75 (0xa bytes), align: 1
  Segment part 250.           Intra module refs:   Segment part 258
           ENTRY                   ADDRESS         REF BY
           =====                   =======         ======
           Font8x8_char_248        00002A6C 
    -------------------------------------------------------------------------
NEAR_CONST
  Relative segment, address: 00002A76 - 00002A7F (0xa bytes), align: 1
  Segment part 251.           Intra module refs:   Segment part 258
           ENTRY                   ADDRESS         REF BY
           =====                   =======         ======
           Font8x8_char_249        00002A76 
    -------------------------------------------------------------------------
NEAR_CONST
  Relative segment, address: 00002A80 - 00002A89 (0xa bytes), align: 1
  Segment part 252.           Intra module refs:   Segment part 258
           ENTRY                   ADDRESS         REF BY
           =====                   =======         ======
           Font8x8_char_250        00002A80 
    -------------------------------------------------------------------------
NEAR_CONST
  Relative segment, address: 00002A8A - 00002A93 (0xa bytes), align: 1
  Segment part 253.           Intra module refs:   Segment part 258
           ENTRY                   ADDRESS         REF BY
           =====                   =======         ======
           Font8x8_char_251        00002A8A 
    -------------------------------------------------------------------------
NEAR_CONST
  Relative segment, address: 00002A94 - 00002A9D (0xa bytes), align: 1
  Segment part 254.           Intra module refs:   Segment part 258
           ENTRY                   ADDRESS         REF BY
           =====                   =======         ======
           Font8x8_char_252        00002A94 
    -------------------------------------------------------------------------
NEAR_CONST
  Relative segment, address: 00002A9E - 00002AA7 (0xa bytes), align: 1
  Segment part 255.           Intra module refs:   Segment part 258
           ENTRY                   ADDRESS         REF BY
           =====                   =======         ======
           Font8x8_char_253        00002A9E 
    -------------------------------------------------------------------------
NEAR_CONST
  Relative segment, address: 00002AA8 - 00002AB1 (0xa bytes), align: 1
  Segment part 256.           Intra module refs:   Segment part 258
           ENTRY                   ADDRESS         REF BY
           =====                   =======         ======
           Font8x8_char_254        00002AA8 
    -------------------------------------------------------------------------
NEAR_CONST
  Relative segment, address: 00002AB2 - 00002ABB (0xa bytes), align: 1
  Segment part 257.           Intra module refs:   Segment part 258
           ENTRY                   ADDRESS         REF BY
           =====                   =======         ======
           Font8x8_char_255        00002AB2 
    -------------------------------------------------------------------------
NEAR_I
  Relative segment, address: 000FEF00 - 000FF0FF (0x200 bytes), align: 1
  Segment part 259.
           ENTRY                   ADDRESS         REF BY
           =====                   =======         ======
           Font8x8_table           000FEF00        LCDFont (lcd)
    -------------------------------------------------------------------------
NEAR_ID
  Relative segment, address: 000018AE - 00001AAD (0x200 bytes), align: 1
  Segment part 258.           Intra module refs:   Font8x8_table

    *************************************************************************

  FILE NAME : D:\DESARROLLOS\prbRL78G13\Debug\Obj\font_helvr10.r87
  PROGRAM MODULE, NAME : font_helvr10

  SEGMENTS IN THE MODULE
  ======================
NEAR_CONST
  Relative segment, address: 00002ABC - 00002AC3 (0x8 bytes), align: 1
  Segment part 2.             Intra module refs:   Segment part 97
           ENTRY                   ADDRESS         REF BY
           =====                   =======         ======
           FontHelvr10_char_32     00002ABC 
    -------------------------------------------------------------------------
NEAR_CONST
  Relative segment, address: 00002AC4 - 00002ACB (0x8 bytes), align: 1
  Segment part 3.             Intra module refs:   Segment part 97
           ENTRY                   ADDRESS         REF BY
           =====                   =======         ======
           FontHelvr10_char_33     00002AC4 
    -------------------------------------------------------------------------
NEAR_CONST
  Relative segment, address: 00002ACC - 00002AD5 (0xa bytes), align: 1
  Segment part 4.             Intra module refs:   Segment part 97
           ENTRY                   ADDRESS         REF BY
           =====                   =======         ======
           FontHelvr10_char_34     00002ACC 
    -------------------------------------------------------------------------
NEAR_CONST
  Relative segment, address: 00002AD6 - 00002AE3 (0xe bytes), align: 1
  Segment part 5.             Intra module refs:   Segment part 97
           ENTRY                   ADDRESS         REF BY
           =====                   =======         ======
           FontHelvr10_char_35     00002AD6 
    -------------------------------------------------------------------------
NEAR_CONST
  Relative segment, address: 00002AE4 - 00002AF1 (0xe bytes), align: 1
  Segment part 6.             Intra module refs:   Segment part 97
           ENTRY                   ADDRESS         REF BY
           =====                   =======         ======
           FontHelvr10_char_36     00002AE4 
    -------------------------------------------------------------------------
NEAR_CONST
  Relative segment, address: 00002AF2 - 00002B05 (0x14 bytes), align: 1
  Segment part 7.             Intra module refs:   Segment part 97
           ENTRY                   ADDRESS         REF BY
           =====                   =======         ======
           FontHelvr10_char_37     00002AF2 
    -------------------------------------------------------------------------
NEAR_CONST
  Relative segment, address: 00002B06 - 00002B17 (0x12 bytes), align: 1
  Segment part 8.             Intra module refs:   Segment part 97
           ENTRY                   ADDRESS         REF BY
           =====                   =======         ======
           FontHelvr10_char_38     00002B06 
    -------------------------------------------------------------------------
NEAR_CONST
  Relative segment, address: 00002B18 - 00002B1F (0x8 bytes), align: 1
  Segment part 9.             Intra module refs:   Segment part 97
           ENTRY                   ADDRESS         REF BY
           =====                   =======         ======
           FontHelvr10_char_39     00002B18 
    -------------------------------------------------------------------------
NEAR_CONST
  Relative segment, address: 00002B20 - 00002B29 (0xa bytes), align: 1
  Segment part 10.            Intra module refs:   Segment part 97
           ENTRY                   ADDRESS         REF BY
           =====                   =======         ======
           FontHelvr10_char_40     00002B20 
    -------------------------------------------------------------------------
NEAR_CONST
  Relative segment, address: 00002B2A - 00002B33 (0xa bytes), align: 1
  Segment part 11.            Intra module refs:   Segment part 97
           ENTRY                   ADDRESS         REF BY
           =====                   =======         ======
           FontHelvr10_char_41     00002B2A 
    -------------------------------------------------------------------------
NEAR_CONST
  Relative segment, address: 00002B34 - 00002B3D (0xa bytes), align: 1
  Segment part 12.            Intra module refs:   Segment part 97
           ENTRY                   ADDRESS         REF BY
           =====                   =======         ======
           FontHelvr10_char_42     00002B34 
    -------------------------------------------------------------------------
NEAR_CONST
  Relative segment, address: 00002B3E - 00002B4B (0xe bytes), align: 1
  Segment part 13.            Intra module refs:   Segment part 97
           ENTRY                   ADDRESS         REF BY
           =====                   =======         ======
           FontHelvr10_char_43     00002B3E 
    -------------------------------------------------------------------------
NEAR_CONST
  Relative segment, address: 00002B4C - 00002B53 (0x8 bytes), align: 1
  Segment part 14.            Intra module refs:   Segment part 97
           ENTRY                   ADDRESS         REF BY
           =====                   =======         ======
           FontHelvr10_char_44     00002B4C 
    -------------------------------------------------------------------------
NEAR_CONST
  Relative segment, address: 00002B54 - 00002B63 (0x10 bytes), align: 1
  Segment part 15.            Intra module refs:   Segment part 97
           ENTRY                   ADDRESS         REF BY
           =====                   =======         ======
           FontHelvr10_char_45     00002B54 
    -------------------------------------------------------------------------
NEAR_CONST
  Relative segment, address: 00002B64 - 00002B6B (0x8 bytes), align: 1
  Segment part 16.            Intra module refs:   Segment part 97
           ENTRY                   ADDRESS         REF BY
           =====                   =======         ======
           FontHelvr10_char_46     00002B64 
    -------------------------------------------------------------------------
NEAR_CONST
  Relative segment, address: 00002B6C - 00002B73 (0x8 bytes), align: 1
  Segment part 17.            Intra module refs:   Segment part 97
           ENTRY                   ADDRESS         REF BY
           =====                   =======         ======
           FontHelvr10_char_47     00002B6C 
    -------------------------------------------------------------------------
NEAR_CONST
  Relative segment, address: 00002B74 - 00002B81 (0xe bytes), align: 1
  Segment part 18.            Intra module refs:   Segment part 97
           ENTRY                   ADDRESS         REF BY
           =====                   =======         ======
           FontHelvr10_char_48     00002B74 
    -------------------------------------------------------------------------
NEAR_CONST
  Relative segment, address: 00002B82 - 00002B8F (0xe bytes), align: 1
  Segment part 19.            Intra module refs:   Segment part 97
           ENTRY                   ADDRESS         REF BY
           =====                   =======         ======
           FontHelvr10_char_49     00002B82 
    -------------------------------------------------------------------------
NEAR_CONST
  Relative segment, address: 00002B90 - 00002B9D (0xe bytes), align: 1
  Segment part 20.            Intra module refs:   Segment part 97
           ENTRY                   ADDRESS         REF BY
           =====                   =======         ======
           FontHelvr10_char_50     00002B90 
    -------------------------------------------------------------------------
NEAR_CONST
  Relative segment, address: 00002B9E - 00002BAB (0xe bytes), align: 1
  Segment part 21.            Intra module refs:   Segment part 97
           ENTRY                   ADDRESS         REF BY
           =====                   =======         ======
           FontHelvr10_char_51     00002B9E 
    -------------------------------------------------------------------------
NEAR_CONST
  Relative segment, address: 00002BAC - 00002BB9 (0xe bytes), align: 1
  Segment part 22.            Intra module refs:   Segment part 97
           ENTRY                   ADDRESS         REF BY
           =====                   =======         ======
           FontHelvr10_char_52     00002BAC 
    -------------------------------------------------------------------------
NEAR_CONST
  Relative segment, address: 00002BBA - 00002BC7 (0xe bytes), align: 1
  Segment part 23.            Intra module refs:   Segment part 97
           ENTRY                   ADDRESS         REF BY
           =====                   =======         ======
           FontHelvr10_char_53     00002BBA 
    -------------------------------------------------------------------------
NEAR_CONST
  Relative segment, address: 00002BC8 - 00002BD5 (0xe bytes), align: 1
  Segment part 24.            Intra module refs:   Segment part 97
           ENTRY                   ADDRESS         REF BY
           =====                   =======         ======
           FontHelvr10_char_54     00002BC8 
    -------------------------------------------------------------------------
NEAR_CONST
  Relative segment, address: 00002BD6 - 00002BE3 (0xe bytes), align: 1
  Segment part 25.            Intra module refs:   Segment part 97
           ENTRY                   ADDRESS         REF BY
           =====                   =======         ======
           FontHelvr10_char_55     00002BD6 
    -------------------------------------------------------------------------
NEAR_CONST
  Relative segment, address: 00002BE4 - 00002BF1 (0xe bytes), align: 1
  Segment part 26.            Intra module refs:   Segment part 97
           ENTRY                   ADDRESS         REF BY
           =====                   =======         ======
           FontHelvr10_char_56     00002BE4 
    -------------------------------------------------------------------------
NEAR_CONST
  Relative segment, address: 00002BF2 - 00002BFF (0xe bytes), align: 1
  Segment part 27.            Intra module refs:   Segment part 97
           ENTRY                   ADDRESS         REF BY
           =====                   =======         ======
           FontHelvr10_char_57     00002BF2 
    -------------------------------------------------------------------------
NEAR_CONST
  Relative segment, address: 00002C00 - 00002C07 (0x8 bytes), align: 1
  Segment part 28.            Intra module refs:   Segment part 97
           ENTRY                   ADDRESS         REF BY
           =====                   =======         ======
           FontHelvr10_char_58     00002C00 
    -------------------------------------------------------------------------
NEAR_CONST
  Relative segment, address: 00002C08 - 00002C0F (0x8 bytes), align: 1
  Segment part 29.            Intra module refs:   Segment part 97
           ENTRY                   ADDRESS         REF BY
           =====                   =======         ======
           FontHelvr10_char_59     00002C08 
    -------------------------------------------------------------------------
NEAR_CONST
  Relative segment, address: 00002C10 - 00002C1D (0xe bytes), align: 1
  Segment part 30.            Intra module refs:   Segment part 97
           ENTRY                   ADDRESS         REF BY
           =====                   =======         ======
           FontHelvr10_char_60     00002C10 
    -------------------------------------------------------------------------
NEAR_CONST
  Relative segment, address: 00002C1E - 00002C29 (0xc bytes), align: 1
  Segment part 31.            Intra module refs:   Segment part 97
           ENTRY                   ADDRESS         REF BY
           =====                   =======         ======
           FontHelvr10_char_61     00002C1E 
    -------------------------------------------------------------------------
NEAR_CONST
  Relative segment, address: 00002C2A - 00002C37 (0xe bytes), align: 1
  Segment part 32.            Intra module refs:   Segment part 97
           ENTRY                   ADDRESS         REF BY
           =====                   =======         ======
           FontHelvr10_char_62     00002C2A 
    -------------------------------------------------------------------------
NEAR_CONST
  Relative segment, address: 00002C38 - 00002C45 (0xe bytes), align: 1
  Segment part 33.            Intra module refs:   Segment part 97
           ENTRY                   ADDRESS         REF BY
           =====                   =======         ======
           FontHelvr10_char_63     00002C38 
    -------------------------------------------------------------------------
NEAR_CONST
  Relative segment, address: 00002C46 - 00002C5D (0x18 bytes), align: 1
  Segment part 34.            Intra module refs:   Segment part 97
           ENTRY                   ADDRESS         REF BY
           =====                   =======         ======
           FontHelvr10_char_64     00002C46 
    -------------------------------------------------------------------------
NEAR_CONST
  Relative segment, address: 00002C5E - 00002C6D (0x10 bytes), align: 1
  Segment part 35.            Intra module refs:   Segment part 97
           ENTRY                   ADDRESS         REF BY
           =====                   =======         ======
           FontHelvr10_char_65     00002C5E 
    -------------------------------------------------------------------------
NEAR_CONST
  Relative segment, address: 00002C6E - 00002C7D (0x10 bytes), align: 1
  Segment part 36.            Intra module refs:   Segment part 97
           ENTRY                   ADDRESS         REF BY
           =====                   =======         ======
           FontHelvr10_char_66     00002C6E 
    -------------------------------------------------------------------------
NEAR_CONST
  Relative segment, address: 00002C7E - 00002C8F (0x12 bytes), align: 1
  Segment part 37.            Intra module refs:   Segment part 97
           ENTRY                   ADDRESS         REF BY
           =====                   =======         ======
           FontHelvr10_char_67     00002C7E 
    -------------------------------------------------------------------------
NEAR_CONST
  Relative segment, address: 00002C90 - 00002CA1 (0x12 bytes), align: 1
  Segment part 38.            Intra module refs:   Segment part 97
           ENTRY                   ADDRESS         REF BY
           =====                   =======         ======
           FontHelvr10_char_68     00002C90 
    -------------------------------------------------------------------------
NEAR_CONST
  Relative segment, address: 00002CA2 - 00002CB1 (0x10 bytes), align: 1
  Segment part 39.            Intra module refs:   Segment part 97
           ENTRY                   ADDRESS         REF BY
           =====                   =======         ======
           FontHelvr10_char_69     00002CA2 
    -------------------------------------------------------------------------
NEAR_CONST
  Relative segment, address: 00002CB2 - 00002CBF (0xe bytes), align: 1
  Segment part 40.            Intra module refs:   Segment part 97
           ENTRY                   ADDRESS         REF BY
           =====                   =======         ======
           FontHelvr10_char_70     00002CB2 
    -------------------------------------------------------------------------
NEAR_CONST
  Relative segment, address: 00002CC0 - 00002CD1 (0x12 bytes), align: 1
  Segment part 41.            Intra module refs:   Segment part 97
           ENTRY                   ADDRESS         REF BY
           =====                   =======         ======
           FontHelvr10_char_71     00002CC0 
    -------------------------------------------------------------------------
NEAR_CONST
  Relative segment, address: 00002CD2 - 00002CE3 (0x12 bytes), align: 1
  Segment part 42.            Intra module refs:   Segment part 97
           ENTRY                   ADDRESS         REF BY
           =====                   =======         ======
           FontHelvr10_char_72     00002CD2 
    -------------------------------------------------------------------------
NEAR_CONST
  Relative segment, address: 00002CE4 - 00002CEB (0x8 bytes), align: 1
  Segment part 43.            Intra module refs:   Segment part 97
           ENTRY                   ADDRESS         REF BY
           =====                   =======         ======
           FontHelvr10_char_73     00002CE4 
    -------------------------------------------------------------------------
NEAR_CONST
  Relative segment, address: 00002CEC - 00002CF7 (0xc bytes), align: 1
  Segment part 44.            Intra module refs:   Segment part 97
           ENTRY                   ADDRESS         REF BY
           =====                   =======         ======
           FontHelvr10_char_74     00002CEC 
    -------------------------------------------------------------------------
NEAR_CONST
  Relative segment, address: 00002CF8 - 00002D07 (0x10 bytes), align: 1
  Segment part 45.            Intra module refs:   Segment part 97
           ENTRY                   ADDRESS         REF BY
           =====                   =======         ======
           FontHelvr10_char_75     00002CF8 
    -------------------------------------------------------------------------
NEAR_CONST
  Relative segment, address: 00002D08 - 00002D15 (0xe bytes), align: 1
  Segment part 46.            Intra module refs:   Segment part 97
           ENTRY                   ADDRESS         REF BY
           =====                   =======         ======
           FontHelvr10_char_76     00002D08 
    -------------------------------------------------------------------------
NEAR_CONST
  Relative segment, address: 00002D16 - 00002D29 (0x14 bytes), align: 1
  Segment part 47.            Intra module refs:   Segment part 97
           ENTRY                   ADDRESS         REF BY
           =====                   =======         ======
           FontHelvr10_char_77     00002D16 
    -------------------------------------------------------------------------
NEAR_CONST
  Relative segment, address: 00002D2A - 00002D3B (0x12 bytes), align: 1
  Segment part 48.            Intra module refs:   Segment part 97
           ENTRY                   ADDRESS         REF BY
           =====                   =======         ======
           FontHelvr10_char_78     00002D2A 
    -------------------------------------------------------------------------
NEAR_CONST
  Relative segment, address: 00002D3C - 00002D4D (0x12 bytes), align: 1
  Segment part 49.            Intra module refs:   Segment part 97
           ENTRY                   ADDRESS         REF BY
           =====                   =======         ======
           FontHelvr10_char_79     00002D3C 
    -------------------------------------------------------------------------
NEAR_CONST
  Relative segment, address: 00002D4E - 00002D5D (0x10 bytes), align: 1
  Segment part 50.            Intra module refs:   Segment part 97
           ENTRY                   ADDRESS         REF BY
           =====                   =======         ======
           FontHelvr10_char_80     00002D4E 
    -------------------------------------------------------------------------
NEAR_CONST
  Relative segment, address: 00002D5E - 00002D6F (0x12 bytes), align: 1
  Segment part 51.            Intra module refs:   Segment part 97
           ENTRY                   ADDRESS         REF BY
           =====                   =======         ======
           FontHelvr10_char_81     00002D5E 
    -------------------------------------------------------------------------
NEAR_CONST
  Relative segment, address: 00002D70 - 00002D7F (0x10 bytes), align: 1
  Segment part 52.            Intra module refs:   Segment part 97
           ENTRY                   ADDRESS         REF BY
           =====                   =======         ======
           FontHelvr10_char_82     00002D70 
    -------------------------------------------------------------------------
NEAR_CONST
  Relative segment, address: 00002D80 - 00002D8F (0x10 bytes), align: 1
  Segment part 53.            Intra module refs:   Segment part 97
           ENTRY                   ADDRESS         REF BY
           =====                   =======         ======
           FontHelvr10_char_83     00002D80 
    -------------------------------------------------------------------------
NEAR_CONST
  Relative segment, address: 00002D90 - 00002D9B (0xc bytes), align: 1
  Segment part 54.            Intra module refs:   Segment part 97
           ENTRY                   ADDRESS         REF BY
           =====                   =======         ======
           FontHelvr10_char_84     00002D90 
    -------------------------------------------------------------------------
NEAR_CONST
  Relative segment, address: 00002D9C - 00002DAD (0x12 bytes), align: 1
  Segment part 55.            Intra module refs:   Segment part 97
           ENTRY                   ADDRESS         REF BY
           =====                   =======         ======
           FontHelvr10_char_85     00002D9C 
    -------------------------------------------------------------------------
NEAR_CONST
  Relative segment, address: 00002DAE - 00002DBD (0x10 bytes), align: 1
  Segment part 56.            Intra module refs:   Segment part 97
           ENTRY                   ADDRESS         REF BY
           =====                   =======         ======
           FontHelvr10_char_86     00002DAE 
    -------------------------------------------------------------------------
NEAR_CONST
  Relative segment, address: 00002DBE - 00002DD1 (0x14 bytes), align: 1
  Segment part 57.            Intra module refs:   Segment part 97
           ENTRY                   ADDRESS         REF BY
           =====                   =======         ======
           FontHelvr10_char_87     00002DBE 
    -------------------------------------------------------------------------
NEAR_CONST
  Relative segment, address: 00002DD2 - 00002DE1 (0x10 bytes), align: 1
  Segment part 58.            Intra module refs:   Segment part 97
           ENTRY                   ADDRESS         REF BY
           =====                   =======         ======
           FontHelvr10_char_88     00002DD2 
    -------------------------------------------------------------------------
NEAR_CONST
  Relative segment, address: 00002DE2 - 00002DF1 (0x10 bytes), align: 1
  Segment part 59.            Intra module refs:   Segment part 97
           ENTRY                   ADDRESS         REF BY
           =====                   =======         ======
           FontHelvr10_char_89     00002DE2 
    -------------------------------------------------------------------------
NEAR_CONST
  Relative segment, address: 00002DF2 - 00002E01 (0x10 bytes), align: 1
  Segment part 60.            Intra module refs:   Segment part 97
           ENTRY                   ADDRESS         REF BY
           =====                   =======         ======
           FontHelvr10_char_90     00002DF2 
    -------------------------------------------------------------------------
NEAR_CONST
  Relative segment, address: 00002E02 - 00002E09 (0x8 bytes), align: 1
  Segment part 61.            Intra module refs:   Segment part 97
           ENTRY                   ADDRESS         REF BY
           =====                   =======         ======
           FontHelvr10_char_91     00002E02 
    -------------------------------------------------------------------------
NEAR_CONST
  Relative segment, address: 00002E0A - 00002E11 (0x8 bytes), align: 1
  Segment part 62.            Intra module refs:   Segment part 97
           ENTRY                   ADDRESS         REF BY
           =====                   =======         ======
           FontHelvr10_char_92     00002E0A 
    -------------------------------------------------------------------------
NEAR_CONST
  Relative segment, address: 00002E12 - 00002E19 (0x8 bytes), align: 1
  Segment part 63.            Intra module refs:   Segment part 97
           ENTRY                   ADDRESS         REF BY
           =====                   =======         ======
           FontHelvr10_char_93     00002E12 
    -------------------------------------------------------------------------
NEAR_CONST
  Relative segment, address: 00002E1A - 00002E27 (0xe bytes), align: 1
  Segment part 64.            Intra module refs:   Segment part 97
           ENTRY                   ADDRESS         REF BY
           =====                   =======         ======
           FontHelvr10_char_94     00002E1A 
    -------------------------------------------------------------------------
NEAR_CONST
  Relative segment, address: 00002E28 - 00002E35 (0xe bytes), align: 1
  Segment part 65.            Intra module refs:   Segment part 97
           ENTRY                   ADDRESS         REF BY
           =====                   =======         ======
           FontHelvr10_char_95     00002E28 
    -------------------------------------------------------------------------
NEAR_CONST
  Relative segment, address: 00002E36 - 00002E3D (0x8 bytes), align: 1
  Segment part 66.            Intra module refs:   Segment part 97
           ENTRY                   ADDRESS         REF BY
           =====                   =======         ======
           FontHelvr10_char_96     00002E36 
    -------------------------------------------------------------------------
NEAR_CONST
  Relative segment, address: 00002E3E - 00002E49 (0xc bytes), align: 1
  Segment part 67.            Intra module refs:   Segment part 97
           ENTRY                   ADDRESS         REF BY
           =====                   =======         ======
           FontHelvr10_char_97     00002E3E 
    -------------------------------------------------------------------------
NEAR_CONST
  Relative segment, address: 00002E4A - 00002E57 (0xe bytes), align: 1
  Segment part 68.            Intra module refs:   Segment part 97
           ENTRY                   ADDRESS         REF BY
           =====                   =======         ======
           FontHelvr10_char_98     00002E4A 
    -------------------------------------------------------------------------
NEAR_CONST
  Relative segment, address: 00002E58 - 00002E63 (0xc bytes), align: 1
  Segment part 69.            Intra module refs:   Segment part 97
           ENTRY                   ADDRESS         REF BY
           =====                   =======         ======
           FontHelvr10_char_99     00002E58 
    -------------------------------------------------------------------------
NEAR_CONST
  Relative segment, address: 00002E64 - 00002E71 (0xe bytes), align: 1
  Segment part 70.            Intra module refs:   Segment part 97
           ENTRY                   ADDRESS         REF BY
           =====                   =======         ======
           FontHelvr10_char_100    00002E64 
    -------------------------------------------------------------------------
NEAR_CONST
  Relative segment, address: 00002E72 - 00002E7D (0xc bytes), align: 1
  Segment part 71.            Intra module refs:   Segment part 97
           ENTRY                   ADDRESS         REF BY
           =====                   =======         ======
           FontHelvr10_char_101    00002E72 
    -------------------------------------------------------------------------
NEAR_CONST
  Relative segment, address: 00002E7E - 00002E87 (0xa bytes), align: 1
  Segment part 72.            Intra module refs:   Segment part 97
           ENTRY                   ADDRESS         REF BY
           =====                   =======         ======
           FontHelvr10_char_102    00002E7E 
    -------------------------------------------------------------------------
NEAR_CONST
  Relative segment, address: 00002E88 - 00002E95 (0xe bytes), align: 1
  Segment part 73.            Intra module refs:   Segment part 97
           ENTRY                   ADDRESS         REF BY
           =====                   =======         ======
           FontHelvr10_char_103    00002E88 
    -------------------------------------------------------------------------
NEAR_CONST
  Relative segment, address: 00002E96 - 00002EA3 (0xe bytes), align: 1
  Segment part 74.            Intra module refs:   Segment part 97
           ENTRY                   ADDRESS         REF BY
           =====                   =======         ======
           FontHelvr10_char_104    00002E96 
    -------------------------------------------------------------------------
NEAR_CONST
  Relative segment, address: 00002EA4 - 00002EA9 (0x6 bytes), align: 1
  Segment part 75.            Intra module refs:   Segment part 97
           ENTRY                   ADDRESS         REF BY
           =====                   =======         ======
           FontHelvr10_char_105    00002EA4 
    -------------------------------------------------------------------------
NEAR_CONST
  Relative segment, address: 00002EAA - 00002EAF (0x6 bytes), align: 1
  Segment part 76.            Intra module refs:   Segment part 97
           ENTRY                   ADDRESS         REF BY
           =====                   =======         ======
           FontHelvr10_char_106    00002EAA 
    -------------------------------------------------------------------------
NEAR_CONST
  Relative segment, address: 00002EB0 - 00002EBB (0xc bytes), align: 1
  Segment part 77.            Intra module refs:   Segment part 97
           ENTRY                   ADDRESS         REF BY
           =====                   =======         ======
           FontHelvr10_char_107    00002EB0 
    -------------------------------------------------------------------------
NEAR_CONST
  Relative segment, address: 00002EBC - 00002EC1 (0x6 bytes), align: 1
  Segment part 78.            Intra module refs:   Segment part 97
           ENTRY                   ADDRESS         REF BY
           =====                   =======         ======
           FontHelvr10_char_108    00002EBC 
    -------------------------------------------------------------------------
NEAR_CONST
  Relative segment, address: 00002EC2 - 00002ED3 (0x12 bytes), align: 1
  Segment part 79.            Intra module refs:   Segment part 97
           ENTRY                   ADDRESS         REF BY
           =====                   =======         ======
           FontHelvr10_char_109    00002EC2 
    -------------------------------------------------------------------------
NEAR_CONST
  Relative segment, address: 00002ED4 - 00002EE1 (0xe bytes), align: 1
  Segment part 80.            Intra module refs:   Segment part 97
           ENTRY                   ADDRESS         REF BY
           =====                   =======         ======
           FontHelvr10_char_110    00002ED4 
    -------------------------------------------------------------------------
NEAR_CONST
  Relative segment, address: 00002EE2 - 00002EEF (0xe bytes), align: 1
  Segment part 81.            Intra module refs:   Segment part 97
           ENTRY                   ADDRESS         REF BY
           =====                   =======         ======
           FontHelvr10_char_111    00002EE2 
    -------------------------------------------------------------------------
NEAR_CONST
  Relative segment, address: 00002EF0 - 00002EFD (0xe bytes), align: 1
  Segment part 82.            Intra module refs:   Segment part 97
           ENTRY                   ADDRESS         REF BY
           =====                   =======         ======
           FontHelvr10_char_112    00002EF0 
    -------------------------------------------------------------------------
NEAR_CONST
  Relative segment, address: 00002EFE - 00002F0B (0xe bytes), align: 1
  Segment part 83.            Intra module refs:   Segment part 97
           ENTRY                   ADDRESS         REF BY
           =====                   =======         ======
           FontHelvr10_char_113    00002EFE 
    -------------------------------------------------------------------------
NEAR_CONST
  Relative segment, address: 00002F0C - 00002F15 (0xa bytes), align: 1
  Segment part 84.            Intra module refs:   Segment part 97
           ENTRY                   ADDRESS         REF BY
           =====                   =======         ======
           FontHelvr10_char_114    00002F0C 
    -------------------------------------------------------------------------
NEAR_CONST
  Relative segment, address: 00002F16 - 00002F21 (0xc bytes), align: 1
  Segment part 85.            Intra module refs:   Segment part 97
           ENTRY                   ADDRESS         REF BY
           =====                   =======         ======
           FontHelvr10_char_115    00002F16 
    -------------------------------------------------------------------------
NEAR_CONST
  Relative segment, address: 00002F22 - 00002F2B (0xa bytes), align: 1
  Segment part 86.            Intra module refs:   Segment part 97
           ENTRY                   ADDRESS         REF BY
           =====                   =======         ======
           FontHelvr10_char_116    00002F22 
    -------------------------------------------------------------------------
NEAR_CONST
  Relative segment, address: 00002F2C - 00002F37 (0xc bytes), align: 1
  Segment part 87.            Intra module refs:   Segment part 97
           ENTRY                   ADDRESS         REF BY
           =====                   =======         ======
           FontHelvr10_char_117    00002F2C 
    -------------------------------------------------------------------------
NEAR_CONST
  Relative segment, address: 00002F38 - 00002F45 (0xe bytes), align: 1
  Segment part 88.            Intra module refs:   Segment part 97
           ENTRY                   ADDRESS         REF BY
           =====                   =======         ======
           FontHelvr10_char_118    00002F38 
    -------------------------------------------------------------------------
NEAR_CONST
  Relative segment, address: 00002F46 - 00002F57 (0x12 bytes), align: 1
  Segment part 89.            Intra module refs:   Segment part 97
           ENTRY                   ADDRESS         REF BY
           =====                   =======         ======
           FontHelvr10_char_119    00002F46 
    -------------------------------------------------------------------------
NEAR_CONST
  Relative segment, address: 00002F58 - 00002F65 (0xe bytes), align: 1
  Segment part 90.            Intra module refs:   Segment part 97
           ENTRY                   ADDRESS         REF BY
           =====                   =======         ======
           FontHelvr10_char_120    00002F58 
    -------------------------------------------------------------------------
NEAR_CONST
  Relative segment, address: 00002F66 - 00002F71 (0xc bytes), align: 1
  Segment part 91.            Intra module refs:   Segment part 97
           ENTRY                   ADDRESS         REF BY
           =====                   =======         ======
           FontHelvr10_char_121    00002F66 
    -------------------------------------------------------------------------
NEAR_CONST
  Relative segment, address: 00002F72 - 00002F7D (0xc bytes), align: 1
  Segment part 92.            Intra module refs:   Segment part 97
           ENTRY                   ADDRESS         REF BY
           =====                   =======         ======
           FontHelvr10_char_122    00002F72 
    -------------------------------------------------------------------------
NEAR_CONST
  Relative segment, address: 00002F7E - 00002F85 (0x8 bytes), align: 1
  Segment part 93.            Intra module refs:   Segment part 97
           ENTRY                   ADDRESS         REF BY
           =====                   =======         ======
           FontHelvr10_char_123    00002F7E 
    -------------------------------------------------------------------------
NEAR_CONST
  Relative segment, address: 00002F86 - 00002F8D (0x8 bytes), align: 1
  Segment part 94.            Intra module refs:   Segment part 97
           ENTRY                   ADDRESS         REF BY
           =====                   =======         ======
           FontHelvr10_char_124    00002F86 
    -------------------------------------------------------------------------
NEAR_CONST
  Relative segment, address: 00002F8E - 00002F95 (0x8 bytes), align: 1
  Segment part 95.            Intra module refs:   Segment part 97
           ENTRY                   ADDRESS         REF BY
           =====                   =======         ======
           FontHelvr10_char_125    00002F8E 
    -------------------------------------------------------------------------
NEAR_CONST
  Relative segment, address: 00002F96 - 00002FA5 (0x10 bytes), align: 1
  Segment part 96.            Intra module refs:   Segment part 97
           ENTRY                   ADDRESS         REF BY
           =====                   =======         ======
           FontHelvr10_char_126    00002F96 
    -------------------------------------------------------------------------
NEAR_I
  Relative segment, address: 000FF100 - 000FF2FF (0x200 bytes), align: 1
  Segment part 98.
           ENTRY                   ADDRESS         REF BY
           =====                   =======         ======
           FontHelvr10_table       000FF100        LCDFont (lcd)
    -------------------------------------------------------------------------
NEAR_ID
  Relative segment, address: 00001AAE - 00001CAD (0x200 bytes), align: 1
  Segment part 97.            Intra module refs:   FontHelvr10_table

    *************************************************************************

  FILE NAME : D:\DESARROLLOS\prbRL78G13\Debug\Obj\font_logos.r87
  PROGRAM MODULE, NAME : font_logos

  SEGMENTS IN THE MODULE
  ======================
NEAR_CONST
  Relative segment, address: 00002FA6 - 00003047 (0xa2 bytes), align: 1
  Segment part 2.             Intra module refs:   Segment part 3
           ENTRY                   ADDRESS         REF BY
           =====                   =======         ======
           Renesas_Logo            00002FA6 
    -------------------------------------------------------------------------
NEAR_I
  Relative segment, address: 000FF300 - 000FF4FF (0x200 bytes), align: 1
  Segment part 4.
           ENTRY                   ADDRESS         REF BY
           =====                   =======         ======
           Logos_table             000FF300        LCDFont (lcd)
    -------------------------------------------------------------------------
NEAR_ID
  Relative segment, address: 00001CAE - 00001EAD (0x200 bytes), align: 1
  Segment part 3.             Intra module refs:   Logos_table

    *************************************************************************

  FILE NAME : D:\DESARROLLOS\prbRL78G13\Debug\Obj\font_winfreesystem14x16.r87
    *************************************************************************

  FILE NAME : D:\DESARROLLOS\prbRL78G13\Debug\Obj\font_x5x7.r87
  PROGRAM MODULE, NAME : font_x5x7

  SEGMENTS IN THE MODULE
  ======================
NEAR_CONST
  Relative segment, address: 00003048 - 0000304F (0x8 bytes), align: 1
  Segment part 2.             Intra module refs:   Segment part 129
           ENTRY                   ADDRESS         REF BY
           =====                   =======         ======
           Fontx5x7_char_0         00003048 
    -------------------------------------------------------------------------
NEAR_CONST
  Relative segment, address: 00003050 - 00003057 (0x8 bytes), align: 1
  Segment part 3.             Intra module refs:   Segment part 129
           ENTRY                   ADDRESS         REF BY
           =====                   =======         ======
           Fontx5x7_char_1         00003050 
    -------------------------------------------------------------------------
NEAR_CONST
  Relative segment, address: 00003058 - 0000305F (0x8 bytes), align: 1
  Segment part 4.             Intra module refs:   Segment part 129
           ENTRY                   ADDRESS         REF BY
           =====                   =======         ======
           Fontx5x7_char_2         00003058 
    -------------------------------------------------------------------------
NEAR_CONST
  Relative segment, address: 00003060 - 00003067 (0x8 bytes), align: 1
  Segment part 5.             Intra module refs:   Segment part 129
           ENTRY                   ADDRESS         REF BY
           =====                   =======         ======
           Fontx5x7_char_3         00003060 
    -------------------------------------------------------------------------
NEAR_CONST
  Relative segment, address: 00003068 - 0000306F (0x8 bytes), align: 1
  Segment part 6.             Intra module refs:   Segment part 129
           ENTRY                   ADDRESS         REF BY
           =====                   =======         ======
           Fontx5x7_char_4         00003068 
    -------------------------------------------------------------------------
NEAR_CONST
  Relative segment, address: 00003070 - 00003077 (0x8 bytes), align: 1
  Segment part 7.             Intra module refs:   Segment part 129
           ENTRY                   ADDRESS         REF BY
           =====                   =======         ======
           Fontx5x7_char_5         00003070 
    -------------------------------------------------------------------------
NEAR_CONST
  Relative segment, address: 00003078 - 0000307F (0x8 bytes), align: 1
  Segment part 8.             Intra module refs:   Segment part 129
           ENTRY                   ADDRESS         REF BY
           =====                   =======         ======
           Fontx5x7_char_6         00003078 
    -------------------------------------------------------------------------
NEAR_CONST
  Relative segment, address: 00003080 - 00003087 (0x8 bytes), align: 1
  Segment part 9.             Intra module refs:   Segment part 129
           ENTRY                   ADDRESS         REF BY
           =====                   =======         ======
           Fontx5x7_char_7         00003080 
    -------------------------------------------------------------------------
NEAR_CONST
  Relative segment, address: 00003088 - 0000308F (0x8 bytes), align: 1
  Segment part 10.            Intra module refs:   Segment part 129
           ENTRY                   ADDRESS         REF BY
           =====                   =======         ======
           Fontx5x7_char_8         00003088 
    -------------------------------------------------------------------------
NEAR_CONST
  Relative segment, address: 00003090 - 00003097 (0x8 bytes), align: 1
  Segment part 11.            Intra module refs:   Segment part 129
           ENTRY                   ADDRESS         REF BY
           =====                   =======         ======
           Fontx5x7_char_9         00003090 
    -------------------------------------------------------------------------
NEAR_CONST
  Relative segment, address: 00003098 - 0000309F (0x8 bytes), align: 1
  Segment part 12.            Intra module refs:   Segment part 129
           ENTRY                   ADDRESS         REF BY
           =====                   =======         ======
           Fontx5x7_char_10        00003098 
    -------------------------------------------------------------------------
NEAR_CONST
  Relative segment, address: 000030A0 - 000030A7 (0x8 bytes), align: 1
  Segment part 13.            Intra module refs:   Segment part 129
           ENTRY                   ADDRESS         REF BY
           =====                   =======         ======
           Fontx5x7_char_11        000030A0 
    -------------------------------------------------------------------------
NEAR_CONST
  Relative segment, address: 000030A8 - 000030AF (0x8 bytes), align: 1
  Segment part 14.            Intra module refs:   Segment part 129
           ENTRY                   ADDRESS         REF BY
           =====                   =======         ======
           Fontx5x7_char_12        000030A8 
    -------------------------------------------------------------------------
NEAR_CONST
  Relative segment, address: 000030B0 - 000030B7 (0x8 bytes), align: 1
  Segment part 15.            Intra module refs:   Segment part 129
           ENTRY                   ADDRESS         REF BY
           =====                   =======         ======
           Fontx5x7_char_13        000030B0 
    -------------------------------------------------------------------------
NEAR_CONST
  Relative segment, address: 000030B8 - 000030BF (0x8 bytes), align: 1
  Segment part 16.            Intra module refs:   Segment part 129
           ENTRY                   ADDRESS         REF BY
           =====                   =======         ======
           Fontx5x7_char_14        000030B8 
    -------------------------------------------------------------------------
NEAR_CONST
  Relative segment, address: 000030C0 - 000030C7 (0x8 bytes), align: 1
  Segment part 17.            Intra module refs:   Segment part 129
           ENTRY                   ADDRESS         REF BY
           =====                   =======         ======
           Fontx5x7_char_15        000030C0 
    -------------------------------------------------------------------------
NEAR_CONST
  Relative segment, address: 000030C8 - 000030CF (0x8 bytes), align: 1
  Segment part 18.            Intra module refs:   Segment part 129
           ENTRY                   ADDRESS         REF BY
           =====                   =======         ======
           Fontx5x7_char_16        000030C8 
    -------------------------------------------------------------------------
NEAR_CONST
  Relative segment, address: 000030D0 - 000030D7 (0x8 bytes), align: 1
  Segment part 19.            Intra module refs:   Segment part 129
           ENTRY                   ADDRESS         REF BY
           =====                   =======         ======
           Fontx5x7_char_17        000030D0 
    -------------------------------------------------------------------------
NEAR_CONST
  Relative segment, address: 000030D8 - 000030DF (0x8 bytes), align: 1
  Segment part 20.            Intra module refs:   Segment part 129
           ENTRY                   ADDRESS         REF BY
           =====                   =======         ======
           Fontx5x7_char_18        000030D8 
    -------------------------------------------------------------------------
NEAR_CONST
  Relative segment, address: 000030E0 - 000030E7 (0x8 bytes), align: 1
  Segment part 21.            Intra module refs:   Segment part 129
           ENTRY                   ADDRESS         REF BY
           =====                   =======         ======
           Fontx5x7_char_19        000030E0 
    -------------------------------------------------------------------------
NEAR_CONST
  Relative segment, address: 000030E8 - 000030EF (0x8 bytes), align: 1
  Segment part 22.            Intra module refs:   Segment part 129
           ENTRY                   ADDRESS         REF BY
           =====                   =======         ======
           Fontx5x7_char_20        000030E8 
    -------------------------------------------------------------------------
NEAR_CONST
  Relative segment, address: 000030F0 - 000030F7 (0x8 bytes), align: 1
  Segment part 23.            Intra module refs:   Segment part 129
           ENTRY                   ADDRESS         REF BY
           =====                   =======         ======
           Fontx5x7_char_21        000030F0 
    -------------------------------------------------------------------------
NEAR_CONST
  Relative segment, address: 000030F8 - 000030FF (0x8 bytes), align: 1
  Segment part 24.            Intra module refs:   Segment part 129
           ENTRY                   ADDRESS         REF BY
           =====                   =======         ======
           Fontx5x7_char_22        000030F8 
    -------------------------------------------------------------------------
NEAR_CONST
  Relative segment, address: 00003100 - 00003107 (0x8 bytes), align: 1
  Segment part 25.            Intra module refs:   Segment part 129
           ENTRY                   ADDRESS         REF BY
           =====                   =======         ======
           Fontx5x7_char_23        00003100 
    -------------------------------------------------------------------------
NEAR_CONST
  Relative segment, address: 00003108 - 0000310F (0x8 bytes), align: 1
  Segment part 26.            Intra module refs:   Segment part 129
           ENTRY                   ADDRESS         REF BY
           =====                   =======         ======
           Fontx5x7_char_24        00003108 
    -------------------------------------------------------------------------
NEAR_CONST
  Relative segment, address: 00003110 - 00003117 (0x8 bytes), align: 1
  Segment part 27.            Intra module refs:   Segment part 129
           ENTRY                   ADDRESS         REF BY
           =====                   =======         ======
           Fontx5x7_char_25        00003110 
    -------------------------------------------------------------------------
NEAR_CONST
  Relative segment, address: 00003118 - 0000311F (0x8 bytes), align: 1
  Segment part 28.            Intra module refs:   Segment part 129
           ENTRY                   ADDRESS         REF BY
           =====                   =======         ======
           Fontx5x7_char_26        00003118 
    -------------------------------------------------------------------------
NEAR_CONST
  Relative segment, address: 00003120 - 00003127 (0x8 bytes), align: 1
  Segment part 29.            Intra module refs:   Segment part 129
           ENTRY                   ADDRESS         REF BY
           =====                   =======         ======
           Fontx5x7_char_27        00003120 
    -------------------------------------------------------------------------
NEAR_CONST
  Relative segment, address: 00003128 - 0000312F (0x8 bytes), align: 1
  Segment part 30.            Intra module refs:   Segment part 129
           ENTRY                   ADDRESS         REF BY
           =====                   =======         ======
           Fontx5x7_char_28        00003128 
    -------------------------------------------------------------------------
NEAR_CONST
  Relative segment, address: 00003130 - 00003137 (0x8 bytes), align: 1
  Segment part 31.            Intra module refs:   Segment part 129
           ENTRY                   ADDRESS         REF BY
           =====                   =======         ======
           Fontx5x7_char_29        00003130 
    -------------------------------------------------------------------------
NEAR_CONST
  Relative segment, address: 00003138 - 0000313F (0x8 bytes), align: 1
  Segment part 32.            Intra module refs:   Segment part 129
           ENTRY                   ADDRESS         REF BY
           =====                   =======         ======
           Fontx5x7_char_30        00003138 
    -------------------------------------------------------------------------
NEAR_CONST
  Relative segment, address: 00003140 - 00003147 (0x8 bytes), align: 1
  Segment part 33.            Intra module refs:   Segment part 129
           ENTRY                   ADDRESS         REF BY
           =====                   =======         ======
           Fontx5x7_char_31        00003140 
    -------------------------------------------------------------------------
NEAR_CONST
  Relative segment, address: 00003148 - 0000314F (0x8 bytes), align: 1
  Segment part 34.            Intra module refs:   Segment part 129
           ENTRY                   ADDRESS         REF BY
           =====                   =======         ======
           Fontx5x7_char_32        00003148 
    -------------------------------------------------------------------------
NEAR_CONST
  Relative segment, address: 00003150 - 00003157 (0x8 bytes), align: 1
  Segment part 35.            Intra module refs:   Segment part 129
           ENTRY                   ADDRESS         REF BY
           =====                   =======         ======
           Fontx5x7_char_33        00003150 
    -------------------------------------------------------------------------
NEAR_CONST
  Relative segment, address: 00003158 - 0000315F (0x8 bytes), align: 1
  Segment part 36.            Intra module refs:   Segment part 129
           ENTRY                   ADDRESS         REF BY
           =====                   =======         ======
           Fontx5x7_char_34        00003158 
    -------------------------------------------------------------------------
NEAR_CONST
  Relative segment, address: 00003160 - 00003167 (0x8 bytes), align: 1
  Segment part 37.            Intra module refs:   Segment part 129
           ENTRY                   ADDRESS         REF BY
           =====                   =======         ======
           Fontx5x7_char_35        00003160 
    -------------------------------------------------------------------------
NEAR_CONST
  Relative segment, address: 00003168 - 0000316F (0x8 bytes), align: 1
  Segment part 38.            Intra module refs:   Segment part 129
           ENTRY                   ADDRESS         REF BY
           =====                   =======         ======
           Fontx5x7_char_36        00003168 
    -------------------------------------------------------------------------
NEAR_CONST
  Relative segment, address: 00003170 - 00003177 (0x8 bytes), align: 1
  Segment part 39.            Intra module refs:   Segment part 129
           ENTRY                   ADDRESS         REF BY
           =====                   =======         ======
           Fontx5x7_char_37        00003170 
    -------------------------------------------------------------------------
NEAR_CONST
  Relative segment, address: 00003178 - 0000317F (0x8 bytes), align: 1
  Segment part 40.            Intra module refs:   Segment part 129
           ENTRY                   ADDRESS         REF BY
           =====                   =======         ======
           Fontx5x7_char_38        00003178 
    -------------------------------------------------------------------------
NEAR_CONST
  Relative segment, address: 00003180 - 00003187 (0x8 bytes), align: 1
  Segment part 41.            Intra module refs:   Segment part 129
           ENTRY                   ADDRESS         REF BY
           =====                   =======         ======
           Fontx5x7_char_39        00003180 
    -------------------------------------------------------------------------
NEAR_CONST
  Relative segment, address: 00003188 - 0000318F (0x8 bytes), align: 1
  Segment part 42.            Intra module refs:   Segment part 129
           ENTRY                   ADDRESS         REF BY
           =====                   =======         ======
           Fontx5x7_char_40        00003188 
    -------------------------------------------------------------------------
NEAR_CONST
  Relative segment, address: 00003190 - 00003197 (0x8 bytes), align: 1
  Segment part 43.            Intra module refs:   Segment part 129
           ENTRY                   ADDRESS         REF BY
           =====                   =======         ======
           Fontx5x7_char_41        00003190 
    -------------------------------------------------------------------------
NEAR_CONST
  Relative segment, address: 00003198 - 0000319F (0x8 bytes), align: 1
  Segment part 44.            Intra module refs:   Segment part 129
           ENTRY                   ADDRESS         REF BY
           =====                   =======         ======
           Fontx5x7_char_42        00003198 
    -------------------------------------------------------------------------
NEAR_CONST
  Relative segment, address: 000031A0 - 000031A7 (0x8 bytes), align: 1
  Segment part 45.            Intra module refs:   Segment part 129
           ENTRY                   ADDRESS         REF BY
           =====                   =======         ======
           Fontx5x7_char_43        000031A0 
    -------------------------------------------------------------------------
NEAR_CONST
  Relative segment, address: 000031A8 - 000031AF (0x8 bytes), align: 1
  Segment part 46.            Intra module refs:   Segment part 129
           ENTRY                   ADDRESS         REF BY
           =====                   =======         ======
           Fontx5x7_char_44        000031A8 
    -------------------------------------------------------------------------
NEAR_CONST
  Relative segment, address: 000031B0 - 000031B7 (0x8 bytes), align: 1
  Segment part 47.            Intra module refs:   Segment part 129
           ENTRY                   ADDRESS         REF BY
           =====                   =======         ======
           Fontx5x7_char_45        000031B0 
    -------------------------------------------------------------------------
NEAR_CONST
  Relative segment, address: 000031B8 - 000031BF (0x8 bytes), align: 1
  Segment part 48.            Intra module refs:   Segment part 129
           ENTRY                   ADDRESS         REF BY
           =====                   =======         ======
           Fontx5x7_char_46        000031B8 
    -------------------------------------------------------------------------
NEAR_CONST
  Relative segment, address: 000031C0 - 000031C7 (0x8 bytes), align: 1
  Segment part 49.            Intra module refs:   Segment part 129
           ENTRY                   ADDRESS         REF BY
           =====                   =======         ======
           Fontx5x7_char_47        000031C0 
    -------------------------------------------------------------------------
NEAR_CONST
  Relative segment, address: 000031C8 - 000031CF (0x8 bytes), align: 1
  Segment part 50.            Intra module refs:   Segment part 129
           ENTRY                   ADDRESS         REF BY
           =====                   =======         ======
           Fontx5x7_char_48        000031C8 
    -------------------------------------------------------------------------
NEAR_CONST
  Relative segment, address: 000031D0 - 000031D7 (0x8 bytes), align: 1
  Segment part 51.            Intra module refs:   Segment part 129
           ENTRY                   ADDRESS         REF BY
           =====                   =======         ======
           Fontx5x7_char_49        000031D0 
    -------------------------------------------------------------------------
NEAR_CONST
  Relative segment, address: 000031D8 - 000031DF (0x8 bytes), align: 1
  Segment part 52.            Intra module refs:   Segment part 129
           ENTRY                   ADDRESS         REF BY
           =====                   =======         ======
           Fontx5x7_char_50        000031D8 
    -------------------------------------------------------------------------
NEAR_CONST
  Relative segment, address: 000031E0 - 000031E7 (0x8 bytes), align: 1
  Segment part 53.            Intra module refs:   Segment part 129
           ENTRY                   ADDRESS         REF BY
           =====                   =======         ======
           Fontx5x7_char_51        000031E0 
    -------------------------------------------------------------------------
NEAR_CONST
  Relative segment, address: 000031E8 - 000031EF (0x8 bytes), align: 1
  Segment part 54.            Intra module refs:   Segment part 129
           ENTRY                   ADDRESS         REF BY
           =====                   =======         ======
           Fontx5x7_char_52        000031E8 
    -------------------------------------------------------------------------
NEAR_CONST
  Relative segment, address: 000031F0 - 000031F7 (0x8 bytes), align: 1
  Segment part 55.            Intra module refs:   Segment part 129
           ENTRY                   ADDRESS         REF BY
           =====                   =======         ======
           Fontx5x7_char_53        000031F0 
    -------------------------------------------------------------------------
NEAR_CONST
  Relative segment, address: 000031F8 - 000031FF (0x8 bytes), align: 1
  Segment part 56.            Intra module refs:   Segment part 129
           ENTRY                   ADDRESS         REF BY
           =====                   =======         ======
           Fontx5x7_char_54        000031F8 
    -------------------------------------------------------------------------
NEAR_CONST
  Relative segment, address: 00003200 - 00003207 (0x8 bytes), align: 1
  Segment part 57.            Intra module refs:   Segment part 129
           ENTRY                   ADDRESS         REF BY
           =====                   =======         ======
           Fontx5x7_char_55        00003200 
    -------------------------------------------------------------------------
NEAR_CONST
  Relative segment, address: 00003208 - 0000320F (0x8 bytes), align: 1
  Segment part 58.            Intra module refs:   Segment part 129
           ENTRY                   ADDRESS         REF BY
           =====                   =======         ======
           Fontx5x7_char_56        00003208 
    -------------------------------------------------------------------------
NEAR_CONST
  Relative segment, address: 00003210 - 00003217 (0x8 bytes), align: 1
  Segment part 59.            Intra module refs:   Segment part 129
           ENTRY                   ADDRESS         REF BY
           =====                   =======         ======
           Fontx5x7_char_57        00003210 
    -------------------------------------------------------------------------
NEAR_CONST
  Relative segment, address: 00003218 - 0000321F (0x8 bytes), align: 1
  Segment part 60.            Intra module refs:   Segment part 129
           ENTRY                   ADDRESS         REF BY
           =====                   =======         ======
           Fontx5x7_char_58        00003218 
    -------------------------------------------------------------------------
NEAR_CONST
  Relative segment, address: 00003220 - 00003227 (0x8 bytes), align: 1
  Segment part 61.            Intra module refs:   Segment part 129
           ENTRY                   ADDRESS         REF BY
           =====                   =======         ======
           Fontx5x7_char_59        00003220 
    -------------------------------------------------------------------------
NEAR_CONST
  Relative segment, address: 00003228 - 0000322F (0x8 bytes), align: 1
  Segment part 62.            Intra module refs:   Segment part 129
           ENTRY                   ADDRESS         REF BY
           =====                   =======         ======
           Fontx5x7_char_60        00003228 
    -------------------------------------------------------------------------
NEAR_CONST
  Relative segment, address: 00003230 - 00003237 (0x8 bytes), align: 1
  Segment part 63.            Intra module refs:   Segment part 129
           ENTRY                   ADDRESS         REF BY
           =====                   =======         ======
           Fontx5x7_char_61        00003230 
    -------------------------------------------------------------------------
NEAR_CONST
  Relative segment, address: 00003238 - 0000323F (0x8 bytes), align: 1
  Segment part 64.            Intra module refs:   Segment part 129
           ENTRY                   ADDRESS         REF BY
           =====                   =======         ======
           Fontx5x7_char_62        00003238 
    -------------------------------------------------------------------------
NEAR_CONST
  Relative segment, address: 00003240 - 00003247 (0x8 bytes), align: 1
  Segment part 65.            Intra module refs:   Segment part 129
           ENTRY                   ADDRESS         REF BY
           =====                   =======         ======
           Fontx5x7_char_63        00003240 
    -------------------------------------------------------------------------
NEAR_CONST
  Relative segment, address: 00003248 - 0000324F (0x8 bytes), align: 1
  Segment part 66.            Intra module refs:   Segment part 129
           ENTRY                   ADDRESS         REF BY
           =====                   =======         ======
           Fontx5x7_char_64        00003248 
    -------------------------------------------------------------------------
NEAR_CONST
  Relative segment, address: 00003250 - 00003257 (0x8 bytes), align: 1
  Segment part 67.            Intra module refs:   Segment part 129
           ENTRY                   ADDRESS         REF BY
           =====                   =======         ======
           Fontx5x7_char_65        00003250 
    -------------------------------------------------------------------------
NEAR_CONST
  Relative segment, address: 00003258 - 0000325F (0x8 bytes), align: 1
  Segment part 68.            Intra module refs:   Segment part 129
           ENTRY                   ADDRESS         REF BY
           =====                   =======         ======
           Fontx5x7_char_66        00003258 
    -------------------------------------------------------------------------
NEAR_CONST
  Relative segment, address: 00003260 - 00003267 (0x8 bytes), align: 1
  Segment part 69.            Intra module refs:   Segment part 129
           ENTRY                   ADDRESS         REF BY
           =====                   =======         ======
           Fontx5x7_char_67        00003260 
    -------------------------------------------------------------------------
NEAR_CONST
  Relative segment, address: 00003268 - 0000326F (0x8 bytes), align: 1
  Segment part 70.            Intra module refs:   Segment part 129
           ENTRY                   ADDRESS         REF BY
           =====                   =======         ======
           Fontx5x7_char_68        00003268 
    -------------------------------------------------------------------------
NEAR_CONST
  Relative segment, address: 00003270 - 00003277 (0x8 bytes), align: 1
  Segment part 71.            Intra module refs:   Segment part 129
           ENTRY                   ADDRESS         REF BY
           =====                   =======         ======
           Fontx5x7_char_69        00003270 
    -------------------------------------------------------------------------
NEAR_CONST
  Relative segment, address: 00003278 - 0000327F (0x8 bytes), align: 1
  Segment part 72.            Intra module refs:   Segment part 129
           ENTRY                   ADDRESS         REF BY
           =====                   =======         ======
           Fontx5x7_char_70        00003278 
    -------------------------------------------------------------------------
NEAR_CONST
  Relative segment, address: 00003280 - 00003287 (0x8 bytes), align: 1
  Segment part 73.            Intra module refs:   Segment part 129
           ENTRY                   ADDRESS         REF BY
           =====                   =======         ======
           Fontx5x7_char_71        00003280 
    -------------------------------------------------------------------------
NEAR_CONST
  Relative segment, address: 00003288 - 0000328F (0x8 bytes), align: 1
  Segment part 74.            Intra module refs:   Segment part 129
           ENTRY                   ADDRESS         REF BY
           =====                   =======         ======
           Fontx5x7_char_72        00003288 
    -------------------------------------------------------------------------
NEAR_CONST
  Relative segment, address: 00003290 - 00003297 (0x8 bytes), align: 1
  Segment part 75.            Intra module refs:   Segment part 129
           ENTRY                   ADDRESS         REF BY
           =====                   =======         ======
           Fontx5x7_char_73        00003290 
    -------------------------------------------------------------------------
NEAR_CONST
  Relative segment, address: 00003298 - 0000329F (0x8 bytes), align: 1
  Segment part 76.            Intra module refs:   Segment part 129
           ENTRY                   ADDRESS         REF BY
           =====                   =======         ======
           Fontx5x7_char_74        00003298 
    -------------------------------------------------------------------------
NEAR_CONST
  Relative segment, address: 000032A0 - 000032A7 (0x8 bytes), align: 1
  Segment part 77.            Intra module refs:   Segment part 129
           ENTRY                   ADDRESS         REF BY
           =====                   =======         ======
           Fontx5x7_char_75        000032A0 
    -------------------------------------------------------------------------
NEAR_CONST
  Relative segment, address: 000032A8 - 000032AF (0x8 bytes), align: 1
  Segment part 78.            Intra module refs:   Segment part 129
           ENTRY                   ADDRESS         REF BY
           =====                   =======         ======
           Fontx5x7_char_76        000032A8 
    -------------------------------------------------------------------------
NEAR_CONST
  Relative segment, address: 000032B0 - 000032B7 (0x8 bytes), align: 1
  Segment part 79.            Intra module refs:   Segment part 129
           ENTRY                   ADDRESS         REF BY
           =====                   =======         ======
           Fontx5x7_char_77        000032B0 
    -------------------------------------------------------------------------
NEAR_CONST
  Relative segment, address: 000032B8 - 000032BF (0x8 bytes), align: 1
  Segment part 80.            Intra module refs:   Segment part 129
           ENTRY                   ADDRESS         REF BY
           =====                   =======         ======
           Fontx5x7_char_78        000032B8 
    -------------------------------------------------------------------------
NEAR_CONST
  Relative segment, address: 000032C0 - 000032C7 (0x8 bytes), align: 1
  Segment part 81.            Intra module refs:   Segment part 129
           ENTRY                   ADDRESS         REF BY
           =====                   =======         ======
           Fontx5x7_char_79        000032C0 
    -------------------------------------------------------------------------
NEAR_CONST
  Relative segment, address: 000032C8 - 000032CF (0x8 bytes), align: 1
  Segment part 82.            Intra module refs:   Segment part 129
           ENTRY                   ADDRESS         REF BY
           =====                   =======         ======
           Fontx5x7_char_80        000032C8 
    -------------------------------------------------------------------------
NEAR_CONST
  Relative segment, address: 000032D0 - 000032D7 (0x8 bytes), align: 1
  Segment part 83.            Intra module refs:   Segment part 129
           ENTRY                   ADDRESS         REF BY
           =====                   =======         ======
           Fontx5x7_char_81        000032D0 
    -------------------------------------------------------------------------
NEAR_CONST
  Relative segment, address: 000032D8 - 000032DF (0x8 bytes), align: 1
  Segment part 84.            Intra module refs:   Segment part 129
           ENTRY                   ADDRESS         REF BY
           =====                   =======         ======
           Fontx5x7_char_82        000032D8 
    -------------------------------------------------------------------------
NEAR_CONST
  Relative segment, address: 000032E0 - 000032E7 (0x8 bytes), align: 1
  Segment part 85.            Intra module refs:   Segment part 129
           ENTRY                   ADDRESS         REF BY
           =====                   =======         ======
           Fontx5x7_char_83        000032E0 
    -------------------------------------------------------------------------
NEAR_CONST
  Relative segment, address: 000032E8 - 000032EF (0x8 bytes), align: 1
  Segment part 86.            Intra module refs:   Segment part 129
           ENTRY                   ADDRESS         REF BY
           =====                   =======         ======
           Fontx5x7_char_84        000032E8 
    -------------------------------------------------------------------------
NEAR_CONST
  Relative segment, address: 000032F0 - 000032F7 (0x8 bytes), align: 1
  Segment part 87.            Intra module refs:   Segment part 129
           ENTRY                   ADDRESS         REF BY
           =====                   =======         ======
           Fontx5x7_char_85        000032F0 
    -------------------------------------------------------------------------
NEAR_CONST
  Relative segment, address: 000032F8 - 000032FF (0x8 bytes), align: 1
  Segment part 88.            Intra module refs:   Segment part 129
           ENTRY                   ADDRESS         REF BY
           =====                   =======         ======
           Fontx5x7_char_86        000032F8 
    -------------------------------------------------------------------------
NEAR_CONST
  Relative segment, address: 00003300 - 00003307 (0x8 bytes), align: 1
  Segment part 89.            Intra module refs:   Segment part 129
           ENTRY                   ADDRESS         REF BY
           =====                   =======         ======
           Fontx5x7_char_87        00003300 
    -------------------------------------------------------------------------
NEAR_CONST
  Relative segment, address: 00003308 - 0000330F (0x8 bytes), align: 1
  Segment part 90.            Intra module refs:   Segment part 129
           ENTRY                   ADDRESS         REF BY
           =====                   =======         ======
           Fontx5x7_char_88        00003308 
    -------------------------------------------------------------------------
NEAR_CONST
  Relative segment, address: 00003310 - 00003317 (0x8 bytes), align: 1
  Segment part 91.            Intra module refs:   Segment part 129
           ENTRY                   ADDRESS         REF BY
           =====                   =======         ======
           Fontx5x7_char_89        00003310 
    -------------------------------------------------------------------------
NEAR_CONST
  Relative segment, address: 00003318 - 0000331F (0x8 bytes), align: 1
  Segment part 92.            Intra module refs:   Segment part 129
           ENTRY                   ADDRESS         REF BY
           =====                   =======         ======
           Fontx5x7_char_90        00003318 
    -------------------------------------------------------------------------
NEAR_CONST
  Relative segment, address: 00003320 - 00003327 (0x8 bytes), align: 1
  Segment part 93.            Intra module refs:   Segment part 129
           ENTRY                   ADDRESS         REF BY
           =====                   =======         ======
           Fontx5x7_char_91        00003320 
    -------------------------------------------------------------------------
NEAR_CONST
  Relative segment, address: 00003328 - 0000332F (0x8 bytes), align: 1
  Segment part 94.            Intra module refs:   Segment part 129
           ENTRY                   ADDRESS         REF BY
           =====                   =======         ======
           Fontx5x7_char_92        00003328 
    -------------------------------------------------------------------------
NEAR_CONST
  Relative segment, address: 00003330 - 00003337 (0x8 bytes), align: 1
  Segment part 95.            Intra module refs:   Segment part 129
           ENTRY                   ADDRESS         REF BY
           =====                   =======         ======
           Fontx5x7_char_93        00003330 
    -------------------------------------------------------------------------
NEAR_CONST
  Relative segment, address: 00003338 - 0000333F (0x8 bytes), align: 1
  Segment part 96.            Intra module refs:   Segment part 129
           ENTRY                   ADDRESS         REF BY
           =====                   =======         ======
           Fontx5x7_char_94        00003338 
    -------------------------------------------------------------------------
NEAR_CONST
  Relative segment, address: 00003340 - 00003347 (0x8 bytes), align: 1
  Segment part 97.            Intra module refs:   Segment part 129
           ENTRY                   ADDRESS         REF BY
           =====                   =======         ======
           Fontx5x7_char_95        00003340 
    -------------------------------------------------------------------------
NEAR_CONST
  Relative segment, address: 00003348 - 0000334F (0x8 bytes), align: 1
  Segment part 98.            Intra module refs:   Segment part 129
           ENTRY                   ADDRESS         REF BY
           =====                   =======         ======
           Fontx5x7_char_96        00003348 
    -------------------------------------------------------------------------
NEAR_CONST
  Relative segment, address: 00003350 - 00003357 (0x8 bytes), align: 1
  Segment part 99.            Intra module refs:   Segment part 129
           ENTRY                   ADDRESS         REF BY
           =====                   =======         ======
           Fontx5x7_char_97        00003350 
    -------------------------------------------------------------------------
NEAR_CONST
  Relative segment, address: 00003358 - 0000335F (0x8 bytes), align: 1
  Segment part 100.           Intra module refs:   Segment part 129
           ENTRY                   ADDRESS         REF BY
           =====                   =======         ======
           Fontx5x7_char_98        00003358 
    -------------------------------------------------------------------------
NEAR_CONST
  Relative segment, address: 00003360 - 00003367 (0x8 bytes), align: 1
  Segment part 101.           Intra module refs:   Segment part 129
           ENTRY                   ADDRESS         REF BY
           =====                   =======         ======
           Fontx5x7_char_99        00003360 
    -------------------------------------------------------------------------
NEAR_CONST
  Relative segment, address: 00003368 - 0000336F (0x8 bytes), align: 1
  Segment part 102.           Intra module refs:   Segment part 129
           ENTRY                   ADDRESS         REF BY
           =====                   =======         ======
           Fontx5x7_char_100       00003368 
    -------------------------------------------------------------------------
NEAR_CONST
  Relative segment, address: 00003370 - 00003377 (0x8 bytes), align: 1
  Segment part 103.           Intra module refs:   Segment part 129
           ENTRY                   ADDRESS         REF BY
           =====                   =======         ======
           Fontx5x7_char_101       00003370 
    -------------------------------------------------------------------------
NEAR_CONST
  Relative segment, address: 00003378 - 0000337F (0x8 bytes), align: 1
  Segment part 104.           Intra module refs:   Segment part 129
           ENTRY                   ADDRESS         REF BY
           =====                   =======         ======
           Fontx5x7_char_102       00003378 
    -------------------------------------------------------------------------
NEAR_CONST
  Relative segment, address: 00003380 - 00003387 (0x8 bytes), align: 1
  Segment part 105.           Intra module refs:   Segment part 129
           ENTRY                   ADDRESS         REF BY
           =====                   =======         ======
           Fontx5x7_char_103       00003380 
    -------------------------------------------------------------------------
NEAR_CONST
  Relative segment, address: 00003388 - 0000338F (0x8 bytes), align: 1
  Segment part 106.           Intra module refs:   Segment part 129
           ENTRY                   ADDRESS         REF BY
           =====                   =======         ======
           Fontx5x7_char_104       00003388 
    -------------------------------------------------------------------------
NEAR_CONST
  Relative segment, address: 00003390 - 00003397 (0x8 bytes), align: 1
  Segment part 107.           Intra module refs:   Segment part 129
           ENTRY                   ADDRESS         REF BY
           =====                   =======         ======
           Fontx5x7_char_105       00003390 
    -------------------------------------------------------------------------
NEAR_CONST
  Relative segment, address: 00003398 - 0000339F (0x8 bytes), align: 1
  Segment part 108.           Intra module refs:   Segment part 129
           ENTRY                   ADDRESS         REF BY
           =====                   =======         ======
           Fontx5x7_char_106       00003398 
    -------------------------------------------------------------------------
NEAR_CONST
  Relative segment, address: 000033A0 - 000033A7 (0x8 bytes), align: 1
  Segment part 109.           Intra module refs:   Segment part 129
           ENTRY                   ADDRESS         REF BY
           =====                   =======         ======
           Fontx5x7_char_107       000033A0 
    -------------------------------------------------------------------------
NEAR_CONST
  Relative segment, address: 000033A8 - 000033AF (0x8 bytes), align: 1
  Segment part 110.           Intra module refs:   Segment part 129
           ENTRY                   ADDRESS         REF BY
           =====                   =======         ======
           Fontx5x7_char_108       000033A8 
    -------------------------------------------------------------------------
NEAR_CONST
  Relative segment, address: 000033B0 - 000033B7 (0x8 bytes), align: 1
  Segment part 111.           Intra module refs:   Segment part 129
           ENTRY                   ADDRESS         REF BY
           =====                   =======         ======
           Fontx5x7_char_109       000033B0 
    -------------------------------------------------------------------------
NEAR_CONST
  Relative segment, address: 000033B8 - 000033BF (0x8 bytes), align: 1
  Segment part 112.           Intra module refs:   Segment part 129
           ENTRY                   ADDRESS         REF BY
           =====                   =======         ======
           Fontx5x7_char_110       000033B8 
    -------------------------------------------------------------------------
NEAR_CONST
  Relative segment, address: 000033C0 - 000033C7 (0x8 bytes), align: 1
  Segment part 113.           Intra module refs:   Segment part 129
           ENTRY                   ADDRESS         REF BY
           =====                   =======         ======
           Fontx5x7_char_111       000033C0 
    -------------------------------------------------------------------------
NEAR_CONST
  Relative segment, address: 000033C8 - 000033CF (0x8 bytes), align: 1
  Segment part 114.           Intra module refs:   Segment part 129
           ENTRY                   ADDRESS         REF BY
           =====                   =======         ======
           Fontx5x7_char_112       000033C8 
    -------------------------------------------------------------------------
NEAR_CONST
  Relative segment, address: 000033D0 - 000033D7 (0x8 bytes), align: 1
  Segment part 115.           Intra module refs:   Segment part 129
           ENTRY                   ADDRESS         REF BY
           =====                   =======         ======
           Fontx5x7_char_113       000033D0 
    -------------------------------------------------------------------------
NEAR_CONST
  Relative segment, address: 000033D8 - 000033DF (0x8 bytes), align: 1
  Segment part 116.           Intra module refs:   Segment part 129
           ENTRY                   ADDRESS         REF BY
           =====                   =======         ======
           Fontx5x7_char_114       000033D8 
    -------------------------------------------------------------------------
NEAR_CONST
  Relative segment, address: 000033E0 - 000033E7 (0x8 bytes), align: 1
  Segment part 117.           Intra module refs:   Segment part 129
           ENTRY                   ADDRESS         REF BY
           =====                   =======         ======
           Fontx5x7_char_115       000033E0 
    -------------------------------------------------------------------------
NEAR_CONST
  Relative segment, address: 000033E8 - 000033EF (0x8 bytes), align: 1
  Segment part 118.           Intra module refs:   Segment part 129
           ENTRY                   ADDRESS         REF BY
           =====                   =======         ======
           Fontx5x7_char_116       000033E8 
    -------------------------------------------------------------------------
NEAR_CONST
  Relative segment, address: 000033F0 - 000033F7 (0x8 bytes), align: 1
  Segment part 119.           Intra module refs:   Segment part 129
           ENTRY                   ADDRESS         REF BY
           =====                   =======         ======
           Fontx5x7_char_117       000033F0 
    -------------------------------------------------------------------------
NEAR_CONST
  Relative segment, address: 000033F8 - 000033FF (0x8 bytes), align: 1
  Segment part 120.           Intra module refs:   Segment part 129
           ENTRY                   ADDRESS         REF BY
           =====                   =======         ======
           Fontx5x7_char_118       000033F8 
    -------------------------------------------------------------------------
NEAR_CONST
  Relative segment, address: 00003400 - 00003407 (0x8 bytes), align: 1
  Segment part 121.           Intra module refs:   Segment part 129
           ENTRY                   ADDRESS         REF BY
           =====                   =======         ======
           Fontx5x7_char_119       00003400 
    -------------------------------------------------------------------------
NEAR_CONST
  Relative segment, address: 00003408 - 0000340F (0x8 bytes), align: 1
  Segment part 122.           Intra module refs:   Segment part 129
           ENTRY                   ADDRESS         REF BY
           =====                   =======         ======
           Fontx5x7_char_120       00003408 
    -------------------------------------------------------------------------
NEAR_CONST
  Relative segment, address: 00003410 - 00003417 (0x8 bytes), align: 1
  Segment part 123.           Intra module refs:   Segment part 129
           ENTRY                   ADDRESS         REF BY
           =====                   =======         ======
           Fontx5x7_char_121       00003410 
    -------------------------------------------------------------------------
NEAR_CONST
  Relative segment, address: 00003418 - 0000341F (0x8 bytes), align: 1
  Segment part 124.           Intra module refs:   Segment part 129
           ENTRY                   ADDRESS         REF BY
           =====                   =======         ======
           Fontx5x7_char_122       00003418 
    -------------------------------------------------------------------------
NEAR_CONST
  Relative segment, address: 00003420 - 00003427 (0x8 bytes), align: 1
  Segment part 125.           Intra module refs:   Segment part 129
           ENTRY                   ADDRESS         REF BY
           =====                   =======         ======
           Fontx5x7_char_123       00003420 
    -------------------------------------------------------------------------
NEAR_CONST
  Relative segment, address: 00003428 - 0000342F (0x8 bytes), align: 1
  Segment part 126.           Intra module refs:   Segment part 129
           ENTRY                   ADDRESS         REF BY
           =====                   =======         ======
           Fontx5x7_char_124       00003428 
    -------------------------------------------------------------------------
NEAR_CONST
  Relative segment, address: 00003430 - 00003437 (0x8 bytes), align: 1
  Segment part 127.           Intra module refs:   Segment part 129
           ENTRY                   ADDRESS         REF BY
           =====                   =======         ======
           Fontx5x7_char_125       00003430 
    -------------------------------------------------------------------------
NEAR_CONST
  Relative segment, address: 00003438 - 0000343F (0x8 bytes), align: 1
  Segment part 128.           Intra module refs:   Segment part 129
           ENTRY                   ADDRESS         REF BY
           =====                   =======         ======
           Fontx5x7_char_126       00003438 
    -------------------------------------------------------------------------
NEAR_I
  Relative segment, address: 000FF500 - 000FF6FF (0x200 bytes), align: 1
  Segment part 130.
           ENTRY                   ADDRESS         REF BY
           =====                   =======         ======
           Fontx5x7_table          000FF500        LCDFont (lcd)
    -------------------------------------------------------------------------
NEAR_ID
  Relative segment, address: 00001EAE - 000020AD (0x200 bytes), align: 1
  Segment part 129.           Intra module refs:   Fontx5x7_table

    *************************************************************************

  FILE NAME : D:\DESARROLLOS\prbRL78G13\Debug\Obj\font_x6x13.r87
    *************************************************************************

  FILE NAME : D:\DESARROLLOS\prbRL78G13\Debug\Obj\lcd.r87
  PROGRAM MODULE, NAME : lcd

  SEGMENTS IN THE MODULE
  ======================
SADDR_A
  Relative segment, address: 000FFF01 - 000FFF01 (0x1 bytes), align: 0
  Segment part 1. ROOT.       Intra module refs:   CommandSend
                                                   DataSend
                                                   LCDInit
                                                   TAUO_Canal4_INT (main)
           ENTRY                   ADDRESS         REF BY
           =====                   =======         ======
           _A_P1                   000FFF01 
           LOCAL                   ADDRESS         
           =====                   =======         
           P1                      000FFF01 
           P1_bit                  000FFF01 
    -------------------------------------------------------------------------
NEAR_A
  Relative segment, address: 000FFF21 - 000FFF21 (0x1 bytes), align: 0
  Segment part 2. ROOT.       Intra module refs:   LCDInit
           ENTRY                   ADDRESS         REF BY
           =====                   =======         ======
           _A_PM1                  000FFF21 
           LOCAL                   ADDRESS         
           =====                   =======         
           PM1                     000FFF21 
           PM1_bit                 000FFF21 
    -------------------------------------------------------------------------
NEAR_I
  Relative segment, address: 000FF700 - 000FF701 (0x2 bytes), align: 1
  Segment part 6.             Intra module refs:   LCDCenter
                                                   LCDFont
           ENTRY                   ADDRESS         REF BY
           =====                   =======         ======
           G_CharWidth             000FF700 
    -------------------------------------------------------------------------
NEAR_I
  Relative segment, address: 000FF702 - 000FF703 (0x2 bytes), align: 1
  Segment part 8.             Intra module refs:   LCDFont
                                                   LCDPrintf
           ENTRY                   ADDRESS         REF BY
           =====                   =======         ======
           G_CharHeight            000FF702 
    -------------------------------------------------------------------------
NEAR_Z
  Relative segment, address: 000FF82E - 000FF82F (0x2 bytes), align: 1
  Segment part 9.             Intra module refs:   LCDFont
                                                   LCD_Char
           ENTRY                   ADDRESS         REF BY
           =====                   =======         ======
           iFont                   000FF82E 
    -------------------------------------------------------------------------
NEAR_Z
  Relative segment, address: 000FF830 - 000FF831 (0x2 bytes), align: 1
  Segment part 10.            Intra module refs:   LCDSetXY
                                                   LCD_Char
           ENTRY                   ADDRESS         REF BY
           =====                   =======         ======
           CharX_Position          000FF830 
    -------------------------------------------------------------------------
NEAR_Z
  Relative segment, address: 000FF832 - 000FF833 (0x2 bytes), align: 1
  Segment part 11.            Intra module refs:   LCDSetXY
                                                   LCD_Char
           ENTRY                   ADDRESS         REF BY
           =====                   =======         ======
           CharY_Position          000FF832 
    -------------------------------------------------------------------------
CODE
  Relative segment, address: 00000834 - 00000859 (0x26 bytes), align: 0
  Segment part 16.            Intra module refs:   ST7579_Send16bitsCommand
                                                   ST7579_SetChar
                                                   ST7579_SetFrameRate
                                                   ST7579_SetLine
                                                   ST7579_SetPage
                                                   ST7579_SetSystemBiasBooster
                                                   ST7579_SetVO_Range
           ENTRY                   ADDRESS         REF BY
           =====                   =======         ======
           CommandSend             00000834 
               calls direct
               CSTACK = 0000000E ( 00000008 )
    -------------------------------------------------------------------------
CODE
  Relative segment, address: 0000085A - 00000879 (0x20 bytes), align: 0
  Segment part 17.            Intra module refs:   LCDClear
                                                   LCDPatron
                                                   LCD_Char
           ENTRY                   ADDRESS         REF BY
           =====                   =======         ======
           DataSend                0000085A 
               calls direct
               CSTACK = 00000010 ( 00000008 )
    -------------------------------------------------------------------------
CODE
  Relative segment, address: 0000087A - 000008D7 (0x5e bytes), align: 0
  Segment part 18.            Intra module refs:   ST7579_Config
           ENTRY                   ADDRESS         REF BY
           =====                   =======         ======
           ST7579_SetVO_Range      0000087A 
               calls direct
               CSTACK = 00000004 ( 0000000A )
    -------------------------------------------------------------------------
CODE
  Relative segment, address: 000008D8 - 00000975 (0x9e bytes), align: 0
  Segment part 19.            Intra module refs:   ST7579_Config
                                                   Segment part 41
           ENTRY                   ADDRESS         REF BY
           =====                   =======         ======
           ST7579_SetSystemBiasBooster
                                   000008D8 
               calls direct
               CSTACK = 00000004 ( 00000002 )
    -------------------------------------------------------------------------
CODE
  Relative segment, address: 00000976 - 000009F2 (0x7d bytes), align: 0
  Segment part 20.            Intra module refs:   ST7579_Config
           ENTRY                   ADDRESS         REF BY
           =====                   =======         ======
           ST7579_SetFrameRate     00000976 
               calls direct
               CSTACK = 00000004 ( 00000004 )
    -------------------------------------------------------------------------
CODE
  Relative segment, address: 000009F3 - 00000A0C (0x1a bytes), align: 0
  Segment part 21.            Intra module refs:   LCDClear
                                                   LCDPatron
                                                   LCD_Char
           ENTRY                   ADDRESS         REF BY
           =====                   =======         ======
           ST7579_SetPage          000009F3 
               calls direct
               CSTACK = 00000010 ( 00000002 )
    -------------------------------------------------------------------------
CODE
  Relative segment, address: 00000A0D - 00000A24 (0x18 bytes), align: 0
  Segment part 22.            Intra module refs:   LCDClear
                                                   LCDPatron
                                                   LCD_Char
           ENTRY                   ADDRESS         REF BY
           =====                   =======         ======
           ST7579_SetChar          00000A0D 
               calls direct
               CSTACK = 00000010 ( 00000002 )
    -------------------------------------------------------------------------
CODE
  Relative segment, address: 00000A25 - 00000ADF (0xbb bytes), align: 0
  Segment part 23.            Intra module refs:   LCDClear
                                                   LCDPatron
           ENTRY                   ADDRESS         REF BY
           =====                   =======         ======
           ST7579_SetLine          00000A25 
               calls direct
               CSTACK = 0000000A ( 0000000E )
    -------------------------------------------------------------------------
CODE
  Relative segment, address: 00000AE0 - 00000AF4 (0x15 bytes), align: 0
  Segment part 24.            Intra module refs:   LCDInit
           ENTRY                   ADDRESS         REF BY
           =====                   =======         ======
           ST7579_Send16bitsCommand
                                   00000AE0 
               calls direct
               CSTACK = 00000002 ( 00000002 )
    -------------------------------------------------------------------------
CODE
  Relative segment, address: 00000AF5 - 00000B1B (0x27 bytes), align: 0
  Segment part 25.            Intra module refs:   LCDInit
           ENTRY                   ADDRESS         REF BY
           =====                   =======         ======
           ST7579_Config           00000AF5 
               calls direct
               CSTACK = 00000002 ( 00000004 )
    -------------------------------------------------------------------------
CODE
  Relative segment, address: 00000B1C - 00000B3A (0x1f bytes), align: 0
  Segment part 26.
           ENTRY                   ADDRESS         REF BY
           =====                   =======         ======
           LCDInit                 00000B1C        main (main)
               calls direct
               CSTACK = 00000000 ( 00000002 )
    -------------------------------------------------------------------------
CODE
  Relative segment, address: 00000B3B - 00000BD5 (0x9b bytes), align: 0
  Segment part 27.            Intra module refs:   LCDInit
           ENTRY                   ADDRESS         REF BY
           =====                   =======         ======
           LCDClear                00000B3B 
               calls direct
               CSTACK = 00000002 ( 0000000A )
    -------------------------------------------------------------------------
CODE
  Relative segment, address: 00000BD6 - 00000C85 (0xb0 bytes), align: 0
  Segment part 28.            Intra module refs:   LCDInit
           ENTRY                   ADDRESS         REF BY
           =====                   =======         ======
           LCDPatron               00000BD6 
               calls direct
               CSTACK = 00000002 ( 0000000A )
    -------------------------------------------------------------------------
CODE
  Relative segment, address: 00000C86 - 00000CDE (0x59 bytes), align: 0
  Segment part 29.
           ENTRY                   ADDRESS         REF BY
           =====                   =======         ======
           LCDFont                 00000C86        main (main)
    -------------------------------------------------------------------------
CODE
  Relative segment, address: 00000CDF - 00000CEA (0xc bytes), align: 0
  Segment part 30.            Intra module refs:   LCDString
           ENTRY                   ADDRESS         REF BY
           =====                   =======         ======
           LCDSetXY                00000CDF 
               CSTACK = 00000004 ( 00000000 )
    -------------------------------------------------------------------------
CODE
  Relative segment, address: 00000CEB - 00000DC7 (0xdd bytes), align: 0
  Segment part 31.            Intra module refs:   LCDString
           ENTRY                   ADDRESS         REF BY
           =====                   =======         ======
           LCD_Char                00000CEB 
               calls direct
               CSTACK = 00000004 ( 00000014 )
    -------------------------------------------------------------------------
CODE
  Relative segment, address: 00000DC8 - 00000DF1 (0x2a bytes), align: 0
  Segment part 32.            Intra module refs:   LCDPrintf
           ENTRY                   ADDRESS         REF BY
           =====                   =======         ======
           LCDString               00000DC8        main (main)
               calls direct
               CSTACK = 0000006C ( 00000004 )
    -------------------------------------------------------------------------
CODE
  Relative segment, address: 00000DF2 - 00000E2B (0x3a bytes), align: 0
  Segment part 34.
           ENTRY                   ADDRESS         REF BY
           =====                   =======         ======
           LCDPrintf               00000DF2        main (main)
               calls direct
               CSTACK = 00000000 ( 0000006C )
    -------------------------------------------------------------------------
CODE
  Relative segment, address: 00000E2C - 00000E48 (0x1d bytes), align: 0
  Segment part 36.
           ENTRY                   ADDRESS         REF BY
           =====                   =======         ======
           LCDCenter               00000E2C        main (main)
               CSTACK = 00000000 ( 00000004 )
    -------------------------------------------------------------------------
NEAR_ID
  Relative segment, address: 000020AE - 000020AF (0x2 bytes), align: 1
  Segment part 5.             Intra module refs:   G_CharWidth
    -------------------------------------------------------------------------
NEAR_ID
  Relative segment, address: 000020B0 - 000020B1 (0x2 bytes), align: 1
  Segment part 7.             Intra module refs:   G_CharHeight
    -------------------------------------------------------------------------
SWITCH
  Relative segment, address: 00003460 - 00003489 (0x2a bytes), align: 1
  Segment part 41.            Intra module refs:   ST7579_SetSystemBiasBooster
    -------------------------------------------------------------------------
NEAR_CONST
  Relative segment, address: 00003440 - 00003449 (0xa bytes), align: 1
  Segment part 4.             Intra module refs:   ST7579_SetLine

    *************************************************************************

  FILE NAME : D:\DESARROLLOS\prbRL78G13\Debug\Obj\main.r87
  PROGRAM MODULE, NAME : main

  SEGMENTS IN THE MODULE
  ======================
SADDR_A
  Relative segment, address: 000FFF00 - 000FFF00 (0x1 bytes), align: 0
  Segment part 1. ROOT.       Intra module refs:   main
                                                   spi10_Init (spi)
           ENTRY                   ADDRESS         REF BY
           =====                   =======         ======
           _A_P0                   000FFF00 
           LOCAL                   ADDRESS         
           =====                   =======         
           P0                      000FFF00 
           P0_bit                  000FFF00 
    -------------------------------------------------------------------------
SADDR_A
  Relative segment, address: 000FFF05 - 000FFF05 (0x1 bytes), align: 0
  Segment part 3. ROOT.       Intra module refs:   MD_INTIT
                                                   main
           ENTRY                   ADDRESS         REF BY
           =====                   =======         ======
           _A_P5                   000FFF05 
           LOCAL                   ADDRESS         
           =====                   =======         
           P5                      000FFF05 
           P5_bit                  000FFF05 
    -------------------------------------------------------------------------
NEAR_A
  Relative segment, address: 000FFF20 - 000FFF20 (0x1 bytes), align: 0
  Segment part 4. ROOT.       Intra module refs:   main
                                                   spi10_Init (spi)
           ENTRY                   ADDRESS         REF BY
           =====                   =======         ======
           _A_PM0                  000FFF20 
           LOCAL                   ADDRESS         
           =====                   =======         
           PM0                     000FFF20 
           PM0_bit                 000FFF20 
    -------------------------------------------------------------------------
NEAR_A
  Relative segment, address: 000FFF25 - 000FFF25 (0x1 bytes), align: 0
  Segment part 5. ROOT.       Intra module refs:   main
           ENTRY                   ADDRESS         REF BY
           =====                   =======         ======
           _A_PM5                  000FFF25 
           LOCAL                   ADDRESS         
           =====                   =======         
           PM5                     000FFF25 
           PM5_bit                 000FFF25 
    -------------------------------------------------------------------------
NEAR_A
  Relative segment, address: 000FFF68 - 000FFF69 (0x2 bytes), align: 0
  Segment part 6. ROOT.       Intra module refs:   main
           ENTRY                   ADDRESS         REF BY
           =====                   =======         ======
           TDR04                   000FFF68 
    -------------------------------------------------------------------------
NEAR_A
  Relative segment, address: 000FFF6A - 000FFF6B (0x2 bytes), align: 0
  Segment part 7. ROOT.       Intra module refs:   main
           ENTRY                   ADDRESS         REF BY
           =====                   =======         ======
           TDR05                   000FFF6A 
    -------------------------------------------------------------------------
NEAR_A
  Relative segment, address: 000FFF90 - 000FFF91 (0x2 bytes), align: 0
  Segment part 8. ROOT.       Intra module refs:   main
           ENTRY                   ADDRESS         REF BY
           =====                   =======         ======
           ITMC                    000FFF90 
    -------------------------------------------------------------------------
NEAR_A
  Relative segment, address: 000FFFA0 - 000FFFA0 (0x1 bytes), align: 0
  Segment part 12. ROOT.      Intra module refs:   main
           ENTRY                   ADDRESS         REF BY
           =====                   =======         ======
           CMC                     000FFFA0 
    -------------------------------------------------------------------------
NEAR_A
  Relative segment, address: 000FFFA1 - 000FFFA1 (0x1 bytes), align: 0
  Segment part 13. ROOT.      Intra module refs:   main
           ENTRY                   ADDRESS         REF BY
           =====                   =======         ======
           _A_CSC                  000FFFA1 
           LOCAL                   ADDRESS         
           =====                   =======         
           CSC                     000FFFA1 
           CSC_bit                 000FFFA1 
    -------------------------------------------------------------------------
NEAR_A
  Relative segment, address: 000FFFA2 - 000FFFA2 (0x1 bytes), align: 0
  Segment part 14. ROOT.      Intra module refs:   main
           ENTRY                   ADDRESS         REF BY
           =====                   =======         ======
           _A_OSTC                 000FFFA2 
           LOCAL                   ADDRESS         
           =====                   =======         
           OSTC                    000FFFA2 
           OSTC_bit                000FFFA2 
    -------------------------------------------------------------------------
NEAR_A
  Relative segment, address: 000FFFA3 - 000FFFA3 (0x1 bytes), align: 0
  Segment part 15. ROOT.      Intra module refs:   main
           ENTRY                   ADDRESS         REF BY
           =====                   =======         ======
           OSTS                    000FFFA3 
    -------------------------------------------------------------------------
NEAR_A
  Relative segment, address: 000FFFA4 - 000FFFA4 (0x1 bytes), align: 0
  Segment part 16. ROOT.      Intra module refs:   main
           ENTRY                   ADDRESS         REF BY
           =====                   =======         ======
           _A_CKC                  000FFFA4 
           LOCAL                   ADDRESS         
           =====                   =======         
           CKC                     000FFFA4 
           CKC_bit                 000FFFA4 
    -------------------------------------------------------------------------
NEAR_A
  Relative segment, address: 000FFFD0 - 000FFFD1 (0x2 bytes), align: 0
  Segment part 17. ROOT.      Intra module refs:   main
           ENTRY                   ADDRESS         REF BY
           =====                   =======         ======
           _A_IF2                  000FFFD0 
           LOCAL                   ADDRESS         
           =====                   =======         
           IF2                     000FFFD0 
           IF2H                    000FFFD1 
           IF2H_bit                000FFFD1 
           IF2L                    000FFFD0 
           IF2L_bit                000FFFD0 
    -------------------------------------------------------------------------
NEAR_A
  Relative segment, address: 000FFFD4 - 000FFFD5 (0x2 bytes), align: 0
  Segment part 18. ROOT.      Intra module refs:   main
           ENTRY                   ADDRESS         REF BY
           =====                   =======         ======
           _A_MK2                  000FFFD4 
           LOCAL                   ADDRESS         
           =====                   =======         
           MK2                     000FFFD4 
           MK2H                    000FFFD5 
           MK2H_bit                000FFFD5 
           MK2L                    000FFFD4 
           MK2L_bit                000FFFD4 
    -------------------------------------------------------------------------
NEAR_A
  Relative segment, address: 000F0077 - 000F0077 (0x1 bytes), align: 0
  Segment part 23. ROOT.      Intra module refs:   main
           ENTRY                   ADDRESS         REF BY
           =====                   =======         ======
           PIOR                    000F0077 
    -------------------------------------------------------------------------
NEAR_A
  Relative segment, address: 000F00F3 - 000F00F3 (0x1 bytes), align: 0
  Segment part 25. ROOT.      Intra module refs:   main
           ENTRY                   ADDRESS         REF BY
           =====                   =======         ======
           OSMC                    000F00F3 
    -------------------------------------------------------------------------
NEAR_A
  Relative segment, address: 000F0198 - 000F0199 (0x2 bytes), align: 0
  Segment part 26. ROOT.      Intra module refs:   main
           ENTRY                   ADDRESS         REF BY
           =====                   =======         ======
           TMR04                   000F0198 
    -------------------------------------------------------------------------
NEAR_A
  Relative segment, address: 000F019A - 000F019B (0x2 bytes), align: 0
  Segment part 27. ROOT.      Intra module refs:   main
           ENTRY                   ADDRESS         REF BY
           =====                   =======         ======
           TMR05                   000F019A 
    -------------------------------------------------------------------------
NEAR_A
  Relative segment, address: 000F01B6 - 000F01B7 (0x2 bytes), align: 0
  Segment part 30. ROOT.      Intra module refs:   main
           ENTRY                   ADDRESS         REF BY
           =====                   =======         ======
           TPS0                    000F01B6 
    -------------------------------------------------------------------------
OPTBYTE
  Relative segment, address: 000000C0 - 000000C0 (0x1 bytes), align: 0
  Segment part 41. ROOT.
           ENTRY                   ADDRESS         REF BY
           =====                   =======         ======
           opbyte0                 000000C0 
    -------------------------------------------------------------------------
OPTBYTE
  Relative segment, address: 000000C1 - 000000C1 (0x1 bytes), align: 0
  Segment part 42. ROOT.
           ENTRY                   ADDRESS         REF BY
           =====                   =======         ======
           opbyte1                 000000C1 
    -------------------------------------------------------------------------
OPTBYTE
  Relative segment, address: 000000C2 - 000000C2 (0x1 bytes), align: 0
  Segment part 43. ROOT.
           ENTRY                   ADDRESS         REF BY
           =====                   =======         ======
           opbyte2                 000000C2 
    -------------------------------------------------------------------------
OPTBYTE
  Relative segment, address: 000000C3 - 000000C3 (0x1 bytes), align: 0
  Segment part 44. ROOT.
           ENTRY                   ADDRESS         REF BY
           =====                   =======         ======
           opbyte3                 000000C3 
    -------------------------------------------------------------------------
SECUID
  Relative segment, address: 000000C4 - 000000CD (0xa bytes), align: 1
  Segment part 45. ROOT.
           ENTRY                   ADDRESS         REF BY
           =====                   =======         ======
           secuid                  000000C4 
    -------------------------------------------------------------------------
NEAR_Z
  Relative segment, address: 000FF834 - 000FF835 (0x2 bytes), align: 1
  Segment part 46.            Intra module refs:   MD_INTIT
           ENTRY                   ADDRESS         REF BY
           =====                   =======         ======
           DT                      000FF834 
    -------------------------------------------------------------------------
NEAR_I
  Relative segment, address: 000FF70C - 000FF70C (0x1 bytes), align: 0
  Segment part 48.            Intra module refs:   MD_INTIT
           ENTRY                   ADDRESS         REF BY
           =====                   =======         ======
           flag                    000FF70C 
    -------------------------------------------------------------------------
CODE
  Relative segment, address: 00000E49 - 00000FE9 (0x1a1 bytes), align: 0
  Segment part 54.
           ENTRY                   ADDRESS         REF BY
           =====                   =======         ======
           main                    00000E49        Segment part 1 (?__MAIN_CALL)
               calls direct
               CSTACK = 00000000 ( 00000010 )
    -------------------------------------------------------------------------
CODE
  Relative segment, address: 00000FEA - 00000FFD (0x14 bytes), align: 0
  Segment part 55.            Intra module refs:   TAUO_Canal4_INT::??INTVEC 66
           ENTRY                   ADDRESS         REF BY
           =====                   =======         ======
           TAUO_Canal4_INT         00000FEA 
               interrupt function
               CSTACK = 00000000 ( 00000002 )
    -------------------------------------------------------------------------
NEAR_Z
  Relative segment, address: 000FF845 - 000FF845 (0x1 bytes), align: 0
  Segment part 49.            Intra module refs:   TAUO_Canal4_INT
           LOCAL                   ADDRESS         
           =====                   =======         
           TAUO_Canal4_INT::count
                                   000FF845 
    -------------------------------------------------------------------------
CODE
  Relative segment, address: 00000FFE - 0000108C (0x8f bytes), align: 0
  Segment part 56.            Intra module refs:   MD_INTIT::??INTVEC 56
           ENTRY                   ADDRESS         REF BY
           =====                   =======         ======
           MD_INTIT                00000FFE 
               interrupt function
               CSTACK = 00000000 ( 00000004 )
    -------------------------------------------------------------------------
NEAR_Z
  Relative segment, address: 000FF836 - 000FF837 (0x2 bytes), align: 1
  Segment part 50.            Intra module refs:   MD_INTIT
           LOCAL                   ADDRESS         
           =====                   =======         
           MD_INTIT::value         000FF836 
    -------------------------------------------------------------------------
NEAR_Z
  Relative segment, address: 000FF838 - 000FF839 (0x2 bytes), align: 1
  Segment part 51.            Intra module refs:   MD_INTIT
           LOCAL                   ADDRESS         
           =====                   =======         
           MD_INTIT::valor         000FF838 
    -------------------------------------------------------------------------
NEAR_Z
  Relative segment, address: 000FF83A - 000FF83B (0x2 bytes), align: 1
  Segment part 52.            Intra module refs:   MD_INTIT
           LOCAL                   ADDRESS         
           =====                   =======         
           MD_INTIT::valor1        000FF83A 
    -------------------------------------------------------------------------
INTVEC
  Common segment, address: 00000000 - 00000039 (0x3a bytes), align: 1
  Segment part 35. ROOT.
           ENTRY                   ADDRESS         REF BY
           =====                   =======         ======
           MD_INTIT::??INTVEC 56   00000038 
    -------------------------------------------------------------------------
INTVEC
  Common segment, address: 00000000 - 00000043 (0x44 bytes), align: 1
  Segment part 36. ROOT.
           ENTRY                   ADDRESS         REF BY
           =====                   =======         ======
           TAUO_Canal4_INT::??INTVEC 66
                                   00000042 
    -------------------------------------------------------------------------
NEAR_ID
  Relative segment, address: 000020BA - 000020BA (0x1 bytes), align: 0
  Segment part 47.            Intra module refs:   flag
    -------------------------------------------------------------------------
NEAR_CONST
  Relative segment, address: 0000344A - 00003453 (0xa bytes), align: 1
  Segment part 38.            Intra module refs:   main
    -------------------------------------------------------------------------
NEAR_CONST
  Relative segment, address: 00003454 - 00003459 (0x6 bytes), align: 1
  Segment part 39.            Intra module refs:   main
    -------------------------------------------------------------------------
NEAR_CONST
  Relative segment, address: 0000345A - 0000345F (0x6 bytes), align: 1
  Segment part 40.            Intra module refs:   main

    *************************************************************************

  FILE NAME : D:\DESARROLLOS\prbRL78G13\Debug\Obj\spi.r87
  PROGRAM MODULE, NAME : spi

  SEGMENTS IN THE MODULE
  ======================
SADDR_A
  Relative segment, address: 000FFF0D - 000FFF0D (0x1 bytes), align: 0
  Segment part 2. ROOT.       Intra module refs:   spi10_Init
           ENTRY                   ADDRESS         REF BY
           =====                   =======         ======
           _A_P13                  000FFF0D 
           LOCAL                   ADDRESS         
           =====                   =======         
           P13                     000FFF0D 
           P13_bit                 000FFF0D 
    -------------------------------------------------------------------------
NEAR_A
  Relative segment, address: 000FFF44 - 000FFF45 (0x2 bytes), align: 0
  Segment part 4. ROOT.       Intra module refs:   INTCSI10
                                                   spi10_Init
                                                   spi10_SendReceiveData
           ENTRY                   ADDRESS         REF BY
           =====                   =======         ======
           _A_SDR02                000FFF44 
           LOCAL                   ADDRESS         
           =====                   =======         
           SDR02                   000FFF44 
           SIO10                   000FFF44 
           TXD1                    000FFF44 
    -------------------------------------------------------------------------
NEAR_A
  Relative segment, address: 000F0060 - 000F0060 (0x1 bytes), align: 0
  Segment part 9. ROOT.       Intra module refs:   spi10_Init
           ENTRY                   ADDRESS         REF BY
           =====                   =======         ======
           _A_PMC0                 000F0060 
           LOCAL                   ADDRESS         
           =====                   =======         
           PMC0                    000F0060 
           PMC0_bit                000F0060 
    -------------------------------------------------------------------------
NEAR_A
  Relative segment, address: 000F0104 - 000F0105 (0x2 bytes), align: 0
  Segment part 11. ROOT.      Intra module refs:   INTCSI10
           ENTRY                   ADDRESS         REF BY
           =====                   =======         ======
           _A_SSR02                000F0104 
           LOCAL                   ADDRESS         
           =====                   =======         
           SSR02                   000F0104 
           SSR02L                  000F0104 
    -------------------------------------------------------------------------
NEAR_A
  Relative segment, address: 000F010C - 000F010D (0x2 bytes), align: 0
  Segment part 12. ROOT.      Intra module refs:   INTCSI10
                                                   spi10_Init
           ENTRY                   ADDRESS         REF BY
           =====                   =======         ======
           _A_SIR02                000F010C 
           LOCAL                   ADDRESS         
           =====                   =======         
           SIR02                   000F010C 
           SIR02L                  000F010C 
    -------------------------------------------------------------------------
NEAR_A
  Relative segment, address: 000F0114 - 000F0115 (0x2 bytes), align: 0
  Segment part 13. ROOT.      Intra module refs:   spi10_Init
           ENTRY                   ADDRESS         REF BY
           =====                   =======         ======
           SMR02                   000F0114 
    -------------------------------------------------------------------------
NEAR_A
  Relative segment, address: 000F011C - 000F011D (0x2 bytes), align: 0
  Segment part 14. ROOT.      Intra module refs:   spi10_Init
           ENTRY                   ADDRESS         REF BY
           =====                   =======         ======
           SCR02                   000F011C 
    -------------------------------------------------------------------------
NEAR_A
  Relative segment, address: 000F0122 - 000F0123 (0x2 bytes), align: 0
  Segment part 15. ROOT.      Intra module refs:   spi10_Init
           ENTRY                   ADDRESS         REF BY
           =====                   =======         ======
           _A_SS0                  000F0122 
           LOCAL                   ADDRESS         
           =====                   =======         
           SS0                     000F0122 
           SS0L                    000F0122 
           SS0L_bit                000F0122 
    -------------------------------------------------------------------------
NEAR_A
  Relative segment, address: 000F0124 - 000F0125 (0x2 bytes), align: 0
  Segment part 16. ROOT.      Intra module refs:   spi10_Init
           ENTRY                   ADDRESS         REF BY
           =====                   =======         ======
           _A_ST0                  000F0124 
           LOCAL                   ADDRESS         
           =====                   =======         
           ST0                     000F0124 
           ST0L                    000F0124 
           ST0L_bit                000F0124 
    -------------------------------------------------------------------------
NEAR_A
  Relative segment, address: 000F0126 - 000F0127 (0x2 bytes), align: 0
  Segment part 17. ROOT.      Intra module refs:   spi10_Init
           ENTRY                   ADDRESS         REF BY
           =====                   =======         ======
           _A_SPS0                 000F0126 
           LOCAL                   ADDRESS         
           =====                   =======         
           SPS0                    000F0126 
           SPS0L                   000F0126 
    -------------------------------------------------------------------------
NEAR_A
  Relative segment, address: 000F0128 - 000F0129 (0x2 bytes), align: 0
  Segment part 18. ROOT.      Intra module refs:   spi10_Init
           ENTRY                   ADDRESS         REF BY
           =====                   =======         ======
           SO0                     000F0128 
    -------------------------------------------------------------------------
NEAR_A
  Relative segment, address: 000F012A - 000F012B (0x2 bytes), align: 0
  Segment part 19. ROOT.      Intra module refs:   spi10_Init
           ENTRY                   ADDRESS         REF BY
           =====                   =======         ======
           _A_SOE0                 000F012A 
           LOCAL                   ADDRESS         
           =====                   =======         
           SOE0                    000F012A 
           SOE0L                   000F012A 
           SOE0L_bit               000F012A 
    -------------------------------------------------------------------------
NEAR_Z
  Relative segment, address: 000FF83C - 000FF83D (0x2 bytes), align: 1
  Segment part 22.            Intra module refs:   INTCSI10
                                                   spi10_SendReceiveData
           ENTRY                   ADDRESS         REF BY
           =====                   =======         ======
           gpCsi10RxAddress        000FF83C 
    -------------------------------------------------------------------------
NEAR_Z
  Relative segment, address: 000FF83E - 000FF83F (0x2 bytes), align: 1
  Segment part 25.            Intra module refs:   INTCSI10
                                                   spi10_SendReceiveData
           ENTRY                   ADDRESS         REF BY
           =====                   =======         ======
           gpCsi10TxAddress        000FF83E 
    -------------------------------------------------------------------------
NEAR_Z
  Relative segment, address: 000FF840 - 000FF841 (0x2 bytes), align: 1
  Segment part 27.            Intra module refs:   INTCSI10
                                                   spi10_SendReceiveData
           ENTRY                   ADDRESS         REF BY
           =====                   =======         ======
           gCsi10TxCnt             000FF840 
    -------------------------------------------------------------------------
NEAR_Z
  Relative segment, address: 000FF846 - 000FF846 (0x1 bytes), align: 0
  Segment part 28.            Intra module refs:   spi10_SendEndCallback
                                                   spi10_SendReceiveData
           ENTRY                   ADDRESS         REF BY
           =====                   =======         ======
           G_SPI_SendingData       000FF846        CommandSend (lcd)
                                                   DataSend (lcd)
    -------------------------------------------------------------------------
NEAR_Z
  Relative segment, address: 000FF847 - 000FF847 (0x1 bytes), align: 0
  Segment part 29.            Intra module refs:   spi10_ReceiveEndCallback
                                                   spi10_SendReceiveData
           ENTRY                   ADDRESS         REF BY
           =====                   =======         ======
           G_SPI_ReceivingData     000FF847 
    -------------------------------------------------------------------------
CODE
  Relative segment, address: 0000108D - 00001145 (0xb9 bytes), align: 0
  Segment part 30.
           ENTRY                   ADDRESS         REF BY
           =====                   =======         ======
           spi10_Init              0000108D        LCDInit (lcd)
               CSTACK = 00000000 ( 00000002 )
    -------------------------------------------------------------------------
CODE
  Relative segment, address: 00001146 - 0000117E (0x39 bytes), align: 0
  Segment part 31.
           ENTRY                   ADDRESS         REF BY
           =====                   =======         ======
           spi10_SendReceiveData   00001146        CommandSend (lcd)
                                                   DataSend (lcd)
    -------------------------------------------------------------------------
CODE
  Relative segment, address: 0000117F - 000011DC (0x5e bytes), align: 0
  Segment part 32.            Intra module refs:   INTCSI10::??INTVEC 36
           ENTRY                   ADDRESS         REF BY
           =====                   =======         ======
           INTCSI10                0000117F 
               interrupt function
               calls direct
               CSTACK = 00000000 ( 00000006 )
    -------------------------------------------------------------------------
CODE
  Relative segment, address: 000011DD - 000011E0 (0x4 bytes), align: 0
  Segment part 33.            Intra module refs:   INTCSI10
           ENTRY                   ADDRESS         REF BY
           =====                   =======         ======
           spi10_ReceiveEndCallback
                                   000011DD 
               CSTACK = 00000006 ( 00000000 )
    -------------------------------------------------------------------------
CODE
  Relative segment, address: 000011E1 - 000011E1 (0x1 bytes), align: 0
  Segment part 34.            Intra module refs:   INTCSI10
           ENTRY                   ADDRESS         REF BY
           =====                   =======         ======
           spi10_ErrorCallback     000011E1 
               CSTACK = 00000006 ( 00000000 )
    -------------------------------------------------------------------------
CODE
  Relative segment, address: 000011E2 - 000011E5 (0x4 bytes), align: 0
  Segment part 35.            Intra module refs:   INTCSI10
           ENTRY                   ADDRESS         REF BY
           =====                   =======         ======
           spi10_SendEndCallback   000011E2 
               CSTACK = 00000006 ( 00000000 )
    -------------------------------------------------------------------------
INTVEC
  Common segment, address: 00000000 - 00000025 (0x26 bytes), align: 1
  Segment part 20. ROOT.
           ENTRY                   ADDRESS         REF BY
           =====                   =======         ======
           INTCSI10::??INTVEC 36   00000024 

    *************************************************************************

  FILE NAME : D:\Archivos de programa\IAR Systems\Embedded Workbench 6.0 Kickstart\rl78\LIB\dlrl78nn1n.r87
  LIBRARY MODULE, NAME : ?__dbg_break

  SEGMENTS IN THE MODULE
  ======================
CODE
  Relative segment, address: 000011E6 - 000011E8 (0x3 bytes), align: 0
  Segment part 2.
           ENTRY                   ADDRESS         REF BY
           =====                   =======         ======
           __DebugBreak            000011E6        __exit (?__exit)

    -------------------------------------------------------------------------
  LIBRARY MODULE, NAME : ?__exit

  SEGMENTS IN THE MODULE
  ======================
CODE
  Relative segment, address: 000011E9 - 000011F8 (0x10 bytes), align: 0
  Segment part 2.
           ENTRY                   ADDRESS         REF BY
           =====                   =======         ======
           __exit                  000011E9        Segment part 3 (?_exit)
               calls direct

    -------------------------------------------------------------------------
  LIBRARY MODULE, NAME : ?_exit

  SEGMENTS IN THE MODULE
  ======================
RCODE
  Relative segment, address: 000000D8 - 000000DB (0x4 bytes), align: 0
  Segment part 1.
           ENTRY                   ADDRESS         REF BY
           =====                   =======         ======
           __cstart_call_dtors     000000D9 
           _exit                   000000D8        exit (?exit)
    -------------------------------------------------------------------------
RCODE
  Relative segment, address: 000000DC - 000000DF (0x4 bytes), align: 0
  Segment part 3.             Intra module refs:   Segment part 1

    -------------------------------------------------------------------------
  LIBRARY MODULE, NAME : ?cppinit

  SEGMENTS IN THE MODULE
  ======================
NEAR_Z
  Relative segment, address: 000FF842 - 000FF843 (0x2 bytes), align: 1
  Segment part 2.             Intra module refs:   __call_dtors
    -------------------------------------------------------------------------
CODE
  Relative segment, address: 000011F9 - 00001226 (0x2e bytes), align: 0
  Segment part 7.
           ENTRY                   ADDRESS         REF BY
           =====                   =======         ======
           __call_dtors            000011F9        Segment part 1 (?_exit)
               calls indirect
               CSTACK = 00000000 ( 00000002 )

    -------------------------------------------------------------------------
  LIBRARY MODULE, NAME : ?CSTARTUP

  SEGMENTS IN THE MODULE
  ======================
CSTACK
  Relative segment, address: 000FF848, align: 1
  Segment part 1. ROOT.
    -------------------------------------------------------------------------
INTVEC
  Common segment, address: 00000000 - 00000001 (0x2 bytes), align: 1
  Segment part 2. ROOT.
    -------------------------------------------------------------------------
RCODE
  Relative segment, address: 000000E0 - 0000010E (0x2f bytes), align: 0
  Segment part 3. ROOT.       Intra module refs:   Segment part 2
           ENTRY                   ADDRESS         REF BY
           =====                   =======         ======
           ?C_STARTUP              000000E0 
           @cstart                 000000E0 
           __program_start         000000E0        Absolute parts (?ABS_ENTRY_MOD)

    -------------------------------------------------------------------------
  LIBRARY MODULE, NAME : ?__INIT_FAR_Z

  SEGMENTS IN THE MODULE
  ======================
FAR_Z
  Relative segment, address: 000FF848, align: 0
  Segment part 1. ROOT.

    -------------------------------------------------------------------------
  LIBRARY MODULE, NAME : ?__INIT_NEAR_Z

  SEGMENTS IN THE MODULE
  ======================
NEAR_Z
  Relative segment, address: 000FF848, align: 0
  Segment part 1. ROOT.
    -------------------------------------------------------------------------
RCODE
  Relative segment, address: 0000010F - 00000121 (0x13 bytes), align: 0
  Segment part 2.
           ENTRY                   ADDRESS         REF BY
           =====                   =======         ======
           __INIT_NEAR_Z           0000010F        CharX_Position (lcd)
                                                   CharY_Position (lcd)
                                                   DT (main)
                                                   G_SPI_ReceivingData (spi)
                                                   G_SPI_SendingData (spi)
                                                   MD_INTIT::valor (main)
                                                   MD_INTIT::valor1 (main)
                                                   MD_INTIT::value (main)
                                                   PulseWidth (IR)
                                                   Segment part 2 (?cppinit)
                                                   TAUO_Canal4_INT::count (main)
                                                   gCsi10TxCnt (spi)
                                                   gTau0Ch3Width (IR)
                                                   got_packet (IR)
                                                   gpCsi10RxAddress (spi)
                                                   gpCsi10TxAddress (spi)
                                                   iFont (lcd)
                                                   irPtr (IR)
                                                   stRTC_Data (RTC)

    -------------------------------------------------------------------------
  LIBRARY MODULE, NAME : ?__INIT_NEAR_I

  SEGMENTS IN THE MODULE
  ======================
NEAR_I
  Relative segment, address: 000FF70D, align: 0
  Segment part 1. ROOT.
    -------------------------------------------------------------------------
NEAR_ID
  Relative segment, address: 000020BB, align: 0
  Segment part 2. ROOT.
    -------------------------------------------------------------------------
RCODE
  Relative segment, address: 00000122 - 0000013B (0x1a bytes), align: 0
  Segment part 3.
           ENTRY                   ADDRESS         REF BY
           =====                   =======         ======
           __INIT_NEAR_I           00000122        Font8x8_table (font_8x8)
                                                   FontHelvr10_table (font_helvr10)
                                                   Fontx5x7_table (font_x5x7)
                                                   G_CharHeight (lcd)
                                                   G_CharWidth (lcd)
                                                   Logos_table (font_logos)
                                                   Segment part 3 (?xprintfsmall)
                                                   flag (main)

    -------------------------------------------------------------------------
  LIBRARY MODULE, NAME : ?__MAIN_CALL

  SEGMENTS IN THE MODULE
  ======================
RCODE
  Relative segment, address: 0000013C - 00000141 (0x6 bytes), align: 0
  Segment part 1.
           ENTRY                   ADDRESS         REF BY
           =====                   =======         ======
           @cend                   00000142 
           __MAIN_CALL             0000013C        Segment part 3 (?CSTARTUP)

    -------------------------------------------------------------------------
  LIBRARY MODULE, NAME : ?__low_level_init_stub

  SEGMENTS IN THE MODULE
  ======================
RCODE
  Relative segment, address: 00000142 - 00000145 (0x4 bytes), align: 0
  Segment part 1.
           ENTRY                   ADDRESS         REF BY
           =====                   =======         ======
           __low_level_init        00000142        Segment part 3 (?CSTARTUP)

    -------------------------------------------------------------------------
  LIBRARY MODULE, NAME : ?exit

  SEGMENTS IN THE MODULE
  ======================
CODE
  Relative segment, address: 00001227 - 00001229 (0x3 bytes), align: 0
  Segment part 2.
           ENTRY                   ADDRESS         REF BY
           =====                   =======         ======
           exit                    00001227        Segment part 1 (?__MAIN_CALL)
               calls direct

    -------------------------------------------------------------------------
  PROGRAM MODULE, NAME : m_fcom5

  SEGMENTS IN THE MODULE
  ======================
__aseg
  Relative segment, address: 00000000, align: 0
  Segment part 1. ROOT.

    -------------------------------------------------------------------------
  LIBRARY MODULE, NAME : ?CLRL78_V1_0_L00

Absolute parts
           ENTRY                   ADDRESS         REF BY
           =====                   =======         ======
           ?CLRL78_V1_0_L00        FFFFFFFF        CommandSend (lcd)
                                                   DataSend (lcd)
                                                   INTCSI10 (spi)
                                                   LCDCenter (lcd)
                                                   LCDClear (lcd)
                                                   LCDFont (lcd)
                                                   LCDInit (lcd)
                                                   LCDPatron (lcd)
                                                   LCDPrintf (lcd)
                                                   LCDSetXY (lcd)
                                                   LCDString (lcd)
                                                   LCD_Char (lcd)
                                                   LoadInt (?xprintfsmall)
                                                   MD_INTIT (main)
                                                   MD_INTTM03 (IR)
                                                   R_RTC_Interrupt (RTC)
                                                   ST7579_Config (lcd)
                                                   ST7579_Send16bitsCommand (lcd)
                                                   ST7579_SetChar (lcd)
                                                   ST7579_SetFrameRate (lcd)
                                                   ST7579_SetLine (lcd)
                                                   ST7579_SetPage (lcd)
                                                   ST7579_SetSystemBiasBooster (lcd)
                                                   ST7579_SetVO_Range (lcd)
                                                   Segment part 11 (?xprintfsmall)
                                                   Segment part 5 (?xprintfsmall)
                                                   Segment part 6 (?xprintfsmall)
                                                   Segment part 8 (?xprintfsmall)
                                                   TAUO_Canal4_INT (main)
                                                   _LitobSmall (?xprintfsmall)
                                                   _PrintfSmall (?xprintfsmall)
                                                   _PutcharSmall (?xprintfsmall)
                                                   _PutcharsSmall (?xprintfsmall)
                                                   _SProut (?xsprout)
                                                   __DebugBreak (?__dbg_break)
                                                   __call_dtors (?cppinit)
                                                   __exit (?__exit)
                                                   __iar_Memchr (?memchr)
                                                   __iar_Strchr (?strchr)
                                                   decodeIR (IR)
                                                   delay_10us (delay)
                                                   delay_ms (delay)
                                                   exit (?exit)
                                                   initIR (IR)
                                                   initRTC (RTC)
                                                   main (main)
                                                   memset (?memset)
                                                   pad (?xprintfsmall)
                                                   spi10_ErrorCallback (spi)
                                                   spi10_Init (spi)
                                                   spi10_ReceiveEndCallback (spi)
                                                   spi10_SendEndCallback (spi)
                                                   spi10_SendReceiveData (spi)
                                                   startIR (IR)
                                                   strlen (?strlen)
                                                   vsprintf (?vsprintf)
  SEGMENTS IN THE MODULE
  ======================
__aseg
  Relative segment, address: 00000000, align: 0
  Segment part 1. ROOT.

    -------------------------------------------------------------------------
  LIBRARY MODULE, NAME : ?UCHAR_DIV_MOD_L01

  SEGMENTS IN THE MODULE
  ======================
__aseg
  Relative segment, address: 00000000, align: 0
  Segment part 1. ROOT.

    -------------------------------------------------------------------------
  LIBRARY MODULE, NAME : ?UCHAR_DIVUW_L01

  SEGMENTS IN THE MODULE
  ======================
__aseg
  Relative segment, address: 00000000, align: 0
  Segment part 1. ROOT.
    -------------------------------------------------------------------------
RCODE
  Relative segment, address: 00000146 - 000001AA (0x65 bytes), align: 0
  Segment part 2.
           ENTRY                   ADDRESS         REF BY
           =====                   =======         ======
           ?DIVUW_L01              00000146        ?INT_DIV_MOD_L02 (?INT_DIV_MOD_L02)

    -------------------------------------------------------------------------
  LIBRARY MODULE, NAME : ?INT_LSH_L02

  SEGMENTS IN THE MODULE
  ======================
__aseg
  Relative segment, address: 00000000, align: 0
  Segment part 1. ROOT.

    -------------------------------------------------------------------------
  LIBRARY MODULE, NAME : ?SINT_RSH_L02

  SEGMENTS IN THE MODULE
  ======================
__aseg
  Relative segment, address: 00000000, align: 0
  Segment part 1. ROOT.

    -------------------------------------------------------------------------
  LIBRARY MODULE, NAME : ?INT_MUL_L02

  SEGMENTS IN THE MODULE
  ======================
__aseg
  Relative segment, address: 00000000, align: 0
  Segment part 1. ROOT.
    -------------------------------------------------------------------------
RCODE
  Relative segment, address: 000001AB - 000001C5 (0x1b bytes), align: 0
  Segment part 2.
           ENTRY                   ADDRESS         REF BY
           =====                   =======         ======
           ?I_MUL_L02              000001AB        LCDCenter (lcd)
                                                   LCD_Char (lcd)
                                                   MD_INTTM03 (IR)
                                                   Segment part 6 (?xprintfsmall)
                                                   decodeIR (IR)

    -------------------------------------------------------------------------
  LIBRARY MODULE, NAME : ?SINT_DIV_L02

  SEGMENTS IN THE MODULE
  ======================
__aseg
  Relative segment, address: 00000000, align: 0
  Segment part 1. ROOT.
    -------------------------------------------------------------------------
RCODE
  Relative segment, address: 000001C6 - 000001DD (0x18 bytes), align: 0
  Segment part 2.
           ENTRY                   ADDRESS         REF BY
           =====                   =======         ======
           ?SI_DIV_L02             000001C6        LCDCenter (lcd)

    -------------------------------------------------------------------------
  LIBRARY MODULE, NAME : ?SINT_MOD_L02

  SEGMENTS IN THE MODULE
  ======================
__aseg
  Relative segment, address: 00000000, align: 0
  Segment part 1. ROOT.

    -------------------------------------------------------------------------
  LIBRARY MODULE, NAME : ?SINT_CMP_L02

  SEGMENTS IN THE MODULE
  ======================
__aseg
  Relative segment, address: 00000000, align: 0
  Segment part 1. ROOT.
    -------------------------------------------------------------------------
RCODE
  Relative segment, address: 000001DE - 000001E9 (0xc bytes), align: 0
  Segment part 2.
           ENTRY                   ADDRESS         REF BY
           =====                   =======         ======
           ?SI_CMP_L02             000001DE        _LitobSmall (?xprintfsmall)
                                                   pad (?xprintfsmall)

    -------------------------------------------------------------------------
  LIBRARY MODULE, NAME : ?INT_NEGATE_DIV_MOD_L02

  SEGMENTS IN THE MODULE
  ======================
__aseg
  Relative segment, address: 00000000, align: 0
  Segment part 1. ROOT.
    -------------------------------------------------------------------------
RCODE
  Relative segment, address: 000001EA - 00000201 (0x18 bytes), align: 0
  Segment part 2.
           ENTRY                   ADDRESS         REF BY
           =====                   =======         ======
           ?INT_NEGATE_DIV_MOD_L02
                                   000001EA        ?SI_DIV_L02 (?SINT_DIV_L02)

    -------------------------------------------------------------------------
  LIBRARY MODULE, NAME : ?INT_DIV_MOD_L02

  SEGMENTS IN THE MODULE
  ======================
__aseg
  Relative segment, address: 00000000, align: 0
  Segment part 1. ROOT.
    -------------------------------------------------------------------------
RCODE
  Relative segment, address: 00000202 - 00000236 (0x35 bytes), align: 0
  Segment part 2.
           ENTRY                   ADDRESS         REF BY
           =====                   =======         ======
           ?INT_DIV_MOD_L02        00000202        ?SI_DIV_L02 (?SINT_DIV_L02)

    -------------------------------------------------------------------------
  LIBRARY MODULE, NAME : ?ULONG_RSH_L03

  SEGMENTS IN THE MODULE
  ======================
__aseg
  Relative segment, address: 00000000, align: 0
  Segment part 1. ROOT.
    -------------------------------------------------------------------------
RCODE
  Relative segment, address: 00000237 - 0000025E (0x28 bytes), align: 0
  Segment part 2.
           ENTRY                   ADDRESS         REF BY
           =====                   =======         ======
           ?UL_RSH_L03             00000237        decodeIR (IR)

    -------------------------------------------------------------------------
  LIBRARY MODULE, NAME : ?LONG_MUL_L03

  SEGMENTS IN THE MODULE
  ======================
__aseg
  Relative segment, address: 00000000, align: 0
  Segment part 1. ROOT.
    -------------------------------------------------------------------------
RCODE
  Relative segment, address: 0000025F - 000002CC (0x6e bytes), align: 0
  Segment part 2.
           ENTRY                   ADDRESS         REF BY
           =====                   =======         ======
           ?L_MUL_L03              0000025F        delay_10us (delay)

    -------------------------------------------------------------------------
  LIBRARY MODULE, NAME : ?ULONG_DIV_L03

  SEGMENTS IN THE MODULE
  ======================
__aseg
  Relative segment, address: 00000000, align: 0
  Segment part 1. ROOT.
    -------------------------------------------------------------------------
RCODE
  Relative segment, address: 000002CD - 000002D9 (0xd bytes), align: 0
  Segment part 2.
           ENTRY                   ADDRESS         REF BY
           =====                   =======         ======
           ?UL_DIV_L03             000002CD        _LitobSmall (?xprintfsmall)

    -------------------------------------------------------------------------
  LIBRARY MODULE, NAME : ?ULONG_MOD_L03

  SEGMENTS IN THE MODULE
  ======================
__aseg
  Relative segment, address: 00000000, align: 0
  Segment part 1. ROOT.
    -------------------------------------------------------------------------
RCODE
  Relative segment, address: 000002DA - 000002E9 (0x10 bytes), align: 0
  Segment part 2.
           ENTRY                   ADDRESS         REF BY
           =====                   =======         ======
           ?UL_MOD_L03             000002DA        _LitobSmall (?xprintfsmall)

    -------------------------------------------------------------------------
  LIBRARY MODULE, NAME : ?SLONG_CMP_L03

  SEGMENTS IN THE MODULE
  ======================
__aseg
  Relative segment, address: 00000000, align: 0
  Segment part 1. ROOT.
    -------------------------------------------------------------------------
RCODE
  Relative segment, address: 000002EA - 0000031C (0x33 bytes), align: 0
  Segment part 2.
           ENTRY                   ADDRESS         REF BY
           =====                   =======         ======
           ?SL_CMP_L03             000002EA        ST7579_SetVO_Range (lcd)
                                                   _LitobSmall (?xprintfsmall)
                                                   _PrintfSmall (?xprintfsmall)

    -------------------------------------------------------------------------
  LIBRARY MODULE, NAME : ?ULONG_CMP_L03

  SEGMENTS IN THE MODULE
  ======================
__aseg
  Relative segment, address: 00000000, align: 0
  Segment part 1. ROOT.
    -------------------------------------------------------------------------
RCODE
  Relative segment, address: 0000031D - 00000339 (0x1d bytes), align: 0
  Segment part 2.
           ENTRY                   ADDRESS         REF BY
           =====                   =======         ======
           ?UL_CMP_L03             0000031D        LCD_Char (lcd)

    -------------------------------------------------------------------------
  LIBRARY MODULE, NAME : ?LONG_NEG_L03

  SEGMENTS IN THE MODULE
  ======================
__aseg
  Relative segment, address: 00000000, align: 0
  Segment part 1. ROOT.
    -------------------------------------------------------------------------
RCODE
  Relative segment, address: 0000033A - 00000358 (0x1f bytes), align: 0
  Segment part 2.
           ENTRY                   ADDRESS         REF BY
           =====                   =======         ======
           ?L_NEG_L03              0000033A        _LitobSmall (?xprintfsmall)

    -------------------------------------------------------------------------
  LIBRARY MODULE, NAME : ?LONG_LOAD_DIV_MOD_L03

  SEGMENTS IN THE MODULE
  ======================
__aseg
  Relative segment, address: 00000000, align: 0
  Segment part 1. ROOT.
    -------------------------------------------------------------------------
RCODE
  Relative segment, address: 00000359 - 00000368 (0x10 bytes), align: 0
  Segment part 2.
           ENTRY                   ADDRESS         REF BY
           =====                   =======         ======
           ?LONG_LOAD_DIV_MOD_L03
                                   00000359        ?UL_DIV_L03 (?ULONG_DIV_L03)
                                                   ?UL_MOD_L03 (?ULONG_MOD_L03)

    -------------------------------------------------------------------------
  LIBRARY MODULE, NAME : ?LONG_DIV_L03

  SEGMENTS IN THE MODULE
  ======================
__aseg
  Relative segment, address: 00000000, align: 0
  Segment part 1. ROOT.
    -------------------------------------------------------------------------
RCODE
  Relative segment, address: 00000369 - 000003F5 (0x8d bytes), align: 0
  Segment part 2.
           ENTRY                   ADDRESS         REF BY
           =====                   =======         ======
           ?LONG_DIV_L03           00000369        ?UL_DIV_L03 (?ULONG_DIV_L03)

    -------------------------------------------------------------------------
  LIBRARY MODULE, NAME : ?LONG_MOD_L03

  SEGMENTS IN THE MODULE
  ======================
__aseg
  Relative segment, address: 00000000, align: 0
  Segment part 1. ROOT.
    -------------------------------------------------------------------------
RCODE
  Relative segment, address: 000003F6 - 0000047B (0x86 bytes), align: 0
  Segment part 2.
           ENTRY                   ADDRESS         REF BY
           =====                   =======         ======
           ?LONG_MOD_L03           000003F6        ?UL_MOD_L03 (?ULONG_MOD_L03)

    -------------------------------------------------------------------------
  LIBRARY MODULE, NAME : ?FUNCTION_LEAVE_L06

  SEGMENTS IN THE MODULE
  ======================
__aseg
  Relative segment, address: 00000000, align: 0
  Segment part 1. ROOT.
    -------------------------------------------------------------------------
RCODE
  Relative segment, address: 0000047C - 000004A4 (0x29 bytes), align: 0
  Segment part 2.
           ENTRY                   ADDRESS         REF BY
           =====                   =======         ======
           ?0SFUNC_LEAVE_L06       0000047C 
           ?FUNC_LEAVE_L06         0000047C        _PrintfSmall (?xprintfsmall)
    -------------------------------------------------------------------------
RCODE
  Relative segment, address: 000004A5 - 000004B8 (0x14 bytes), align: 0
  Segment part 3.             Intra module refs:   Segment part 2
           ENTRY                   ADDRESS         REF BY
           =====                   =======         ======
           ?0EFUNC_LEAVE_L06       000004B8 
           ?1SFUNC_LEAVE_L06       000004A5 

    -------------------------------------------------------------------------
  LIBRARY MODULE, NAME : ?MOVE_LONG_OBJECT_L06

  SEGMENTS IN THE MODULE
  ======================
__aseg
  Relative segment, address: 00000000, align: 0
  Segment part 1. ROOT.
    -------------------------------------------------------------------------
RCODE
  Relative segment, address: 000004B9 - 000004EB (0x33 bytes), align: 0
  Segment part 2.
           ENTRY                   ADDRESS         REF BY
           =====                   =======         ======
           ?0EMOVE_LONG_L06        000004EB 
           ?0SMOVE_LONG_L06        000004B9 
           ?1SMOVE_LONG_L06        000004C9 
           ?2SMOVE_LONG_L06        000004D9 
           ?3SMOVE_LONG_L06        000004DD 
           ?4SMOVE_LONG_L06        000004E9 
           ?MOVE_LONG_L06          000004B9        Segment part 3 (?FUNCTION_LEAVE_L06)

    -------------------------------------------------------------------------
  LIBRARY MODULE, NAME : ?LONG_FLOAT_DEALLOC_L06

  SEGMENTS IN THE MODULE
  ======================
__aseg
  Relative segment, address: 00000000, align: 0
  Segment part 1. ROOT.
    -------------------------------------------------------------------------
RCODE
  Relative segment, address: 000004EC - 0000051B (0x30 bytes), align: 0
  Segment part 2.
           ENTRY                   ADDRESS         REF BY
           =====                   =======         ======
           ?0EL_F_DEALLOC_L06      0000051B 
           ?0SL_F_DEALLOC_L06      000004EC 
           ?L_F_DEALLOC_L06        000004EC        ?L_MUL_L03 (?LONG_MUL_L03)
                                                   ?UL_DIV_L03 (?ULONG_DIV_L03)
                                                   ?UL_MOD_L03 (?ULONG_MOD_L03)

    -------------------------------------------------------------------------
  LIBRARY MODULE, NAME : ?LONG_FLOAT_DEALLOC_STAT_L06

  SEGMENTS IN THE MODULE
  ======================
__aseg
  Relative segment, address: 00000000, align: 0
  Segment part 1. ROOT.
    -------------------------------------------------------------------------
RCODE
  Relative segment, address: 0000051C - 00000540 (0x25 bytes), align: 0
  Segment part 2.
           ENTRY                   ADDRESS         REF BY
           =====                   =======         ======
           ?0EL_F_DEALLOC_STAT_L06
                                   00000540 
           ?0SL_F_DEALLOC_STAT_L06
                                   0000051C 
           ?L_F_DEALLOC_STAT_L06   0000051C        ?SL_CMP_L03 (?SLONG_CMP_L03)
                                                   ?UL_CMP_L03 (?ULONG_CMP_L03)

    -------------------------------------------------------------------------
  LIBRARY MODULE, NAME : ?WRKSEG_DEFINE_L09

  SEGMENTS IN THE MODULE
  ======================
__aseg
  Relative segment, address: 00000000, align: 0
  Segment part 1. ROOT.

    -------------------------------------------------------------------------
  LIBRARY MODULE, NAME : ?CHAR_SSWITCH_L10

  SEGMENTS IN THE MODULE
  ======================
__aseg
  Relative segment, address: 00000000, align: 0
  Segment part 1. ROOT.
    -------------------------------------------------------------------------
RCODE
  Relative segment, address: 00000541 - 00000557 (0x17 bytes), align: 0
  Segment part 2.
           ENTRY                   ADDRESS         REF BY
           =====                   =======         ======
           ?0EC_SSWITCH_L10        00000556 
           ?0SC_SSWITCH_L10        00000541 
           ?1SC_SSWITCH_L10        0000054F 
           ?C_SSWITCH_L10          00000541        ST7579_SetSystemBiasBooster (lcd)

    -------------------------------------------------------------------------
  PROGRAM MODULE, NAME : m_fcom6

  SEGMENTS IN THE MODULE
  ======================
__aseg
  Relative segment, address: 00000000, align: 0
  Segment part 1. ROOT.

    -------------------------------------------------------------------------
  LIBRARY MODULE, NAME : ?memchr

  SEGMENTS IN THE MODULE
  ======================
CODE
  Relative segment, address: 0000122A - 0000123E (0x15 bytes), align: 0
  Segment part 3.
           ENTRY                   ADDRESS         REF BY
           =====                   =======         ======
           __iar_Memchr            0000122A        _PrintfSmall (?xprintfsmall)

    -------------------------------------------------------------------------
  LIBRARY MODULE, NAME : ?memset

  SEGMENTS IN THE MODULE
  ======================
CODE
  Relative segment, address: 0000123F - 00001253 (0x15 bytes), align: 0
  Segment part 2.
           ENTRY                   ADDRESS         REF BY
           =====                   =======         ======
           memset                  0000123F        startIR (IR)

    -------------------------------------------------------------------------
  LIBRARY MODULE, NAME : ?strchr

  SEGMENTS IN THE MODULE
  ======================
CODE
  Relative segment, address: 00001254 - 00001265 (0x12 bytes), align: 0
  Segment part 3.
           ENTRY                   ADDRESS         REF BY
           =====                   =======         ======
           __iar_Strchr            00001254        _PrintfSmall (?xprintfsmall)

    -------------------------------------------------------------------------
  LIBRARY MODULE, NAME : ?strlen

  SEGMENTS IN THE MODULE
  ======================
CODE
  Relative segment, address: 00001266 - 00001275 (0x10 bytes), align: 0
  Segment part 2.
           ENTRY                   ADDRESS         REF BY
           =====                   =======         ======
           strlen                  00001266        LCDString (lcd)
                                                   _PrintfSmall (?xprintfsmall)
               CSTACK = 00000000 ( 00000002 )

    -------------------------------------------------------------------------
  LIBRARY MODULE, NAME : ?vsprintf

  SEGMENTS IN THE MODULE
  ======================
CODE
  Relative segment, address: 00001276 - 0000129F (0x2a bytes), align: 0
  Segment part 2.
           ENTRY                   ADDRESS         REF BY
           =====                   =======         ======
           vsprintf                00001276        LCDPrintf (lcd)
               calls direct
               CSTACK = 00000000 ( 00000008 )

    -------------------------------------------------------------------------
  LIBRARY MODULE, NAME : ?xprintfsmall

  SEGMENTS IN THE MODULE
  ======================
CODE
  Relative segment, address: 000012A0 - 00001655 (0x3b6 bytes), align: 0
  Segment part 4.
           ENTRY                   ADDRESS         REF BY
           =====                   =======         ======
           _PrintfSmall            000012A0        vsprintf (?vsprintf)
               calls direct
               CSTACK = 00000002 ( 0000003E )
    -------------------------------------------------------------------------
CODE
  Relative segment, address: 00001656 - 0000165B (0x6 bytes), align: 0
  Segment part 5.             Intra module refs:   _PrintfSmall
    -------------------------------------------------------------------------
CODE
  Relative segment, address: 0000165C - 0000166A (0xf bytes), align: 0
  Segment part 6.             Intra module refs:   _PrintfSmall
    -------------------------------------------------------------------------
CODE
  Relative segment, address: 0000166B - 000016AA (0x40 bytes), align: 0
  Segment part 7.             Intra module refs:   _PrintfSmall
           LOCAL                   ADDRESS         
           =====                   =======         
           LoadInt                 0000166B 
               CSTACK = 0000003A ( 00000002 )
    -------------------------------------------------------------------------
CODE
  Relative segment, address: 000016AB - 000016B1 (0x7 bytes), align: 0
  Segment part 8.             Intra module refs:   LoadInt
    -------------------------------------------------------------------------
CODE
  Relative segment, address: 000016B2 - 000016DE (0x2d bytes), align: 0
  Segment part 9.             Intra module refs:   _PrintfSmall
           LOCAL                   ADDRESS         
           =====                   =======         
           pad                     000016B2 
               calls direct
               CSTACK = 0000003A ( 0000000A )
    -------------------------------------------------------------------------
CODE
  Relative segment, address: 000016DF - 00001858 (0x17a bytes), align: 0
  Segment part 10.            Intra module refs:   _PrintfSmall
           LOCAL                   ADDRESS         
           =====                   =======         
           _LitobSmall             000016DF 
               CSTACK = 0000003A ( 00000018 )
    -------------------------------------------------------------------------
CODE
  Relative segment, address: 00001859 - 0000185D (0x5 bytes), align: 0
  Segment part 11.            Intra module refs:   _LitobSmall
                                                   _PrintfSmall
    -------------------------------------------------------------------------
CODE
  Relative segment, address: 0000185E - 0000187D (0x20 bytes), align: 0
  Segment part 12.            Intra module refs:   _PrintfSmall
                                                   _PutcharsSmall
           LOCAL                   ADDRESS         
           =====                   =======         
           _PutcharSmall           0000185E 
               calls indirect
               CSTACK = 0000003A ( 00000002 )
    -------------------------------------------------------------------------
CODE
  Relative segment, address: 0000187E - 000018A0 (0x23 bytes), align: 0
  Segment part 13.            Intra module refs:   _PrintfSmall
                                                   pad
           LOCAL                   ADDRESS         
           =====                   =======         
           _PutcharsSmall          0000187E 
               calls direct
               CSTACK = 0000003A ( 00000004 )
    -------------------------------------------------------------------------
NEAR_ID
  Relative segment, address: 000020B2 - 000020B9 (0x8 bytes), align: 1
  Segment part 2.             Intra module refs:   Segment part 3
    -------------------------------------------------------------------------
NEAR_I
  Relative segment, address: 000FF704 - 000FF70B (0x8 bytes), align: 1
  Segment part 3.             Intra module refs:   _PrintfSmall

    -------------------------------------------------------------------------
  LIBRARY MODULE, NAME : ?xsprout

  SEGMENTS IN THE MODULE
  ======================
CODE
  Relative segment, address: 000018A1 - 000018AC (0xc bytes), align: 0
  Segment part 2.
           ENTRY                   ADDRESS         REF BY
           =====                   =======         ======
           _SProut                 000018A1        vsprintf (?vsprintf)
               CSTACK = 00000000 ( 00000002 )




                ****************************************
                *                                      *
                *      SEGMENTS IN ADDRESS ORDER       *
                *                                      *
                ****************************************


SEGMENT              SPACE    START ADDRESS   END ADDRESS     SIZE  TYPE  ALIGN
=======              =====    =============   ===========     ====  ====  =====
__aseg                                  00000000                     rel    0
INTVEC                             00000000 - 00000043          44   com    1
OPTBYTE                            000000C0 - 000000C3           4   rel    0
SECUID                             000000C4 - 000000CD           A   rel    1
RCODE                              000000D8 - 00000557         480   rel    0
CODE                               00000558 - 000018AC        1355   rel    0
NEAR_ID                            000018AE - 000020BA         80D   rel    1
NEAR_CONST                         000020BC - 0000345F        13A4   rel    1
SWITCH                             00003460 - 00003489          2A   rel    1
NEAR_A                             000F0060 - 000F0060           1   rel    0
                                   000F0071 - 000F0071           1 
                                   000F0077 - 000F0077           1 
                                   000F00F0 - 000F00F0           1 
                                   000F00F3 - 000F00F3           1 
                                   000F0104 - 000F0105           2 
                                   000F010C - 000F010D           2 
                                   000F0114 - 000F0115           2 
                                   000F011C - 000F011D           2 
                                   000F0122 - 000F012B           A 
                                   000F0196 - 000F019B           6 
                                   000F01A6 - 000F01A7           2 
                                   000F01B2 - 000F01BF           E 
NEAR_I                             000FEF00 - 000FF70C         80D   rel    1
NEAR_Z                             000FF70E - 000FF847         13A   rel    1
FAR_Z                                   000FF848                     rel    0
CSTACK                             000FF848 - 000FFC47         400   rel    1
SADDR_A                            000FFF00 - 000FFF01           2   rel    0
                                   000FFF05 - 000FFF05           1 
                                   000FFF0D - 000FFF0D           1 
NEAR_A                             000FFF20 - 000FFF21           2   rel    0
                                   000FFF23 - 000FFF23           1 
                                   000FFF25 - 000FFF25           1 
                                   000FFF44 - 000FFF45           2 
                                   000FFF66 - 000FFF6B           6 
                                   000FFF90 - 000FFF98           9 
                                   000FFF9D - 000FFF9E           2 
                                   000FFFA0 - 000FFFA4           5 
                                   000FFFD0 - 000FFFD1           2 
                                   000FFFD4 - 000FFFD5           2 
                                   000FFFE2 - 000FFFE3           2 
                                   000FFFE6 - 000FFFE7           2 
                                   000FFFEA - 000FFFEB           2 
NEAR_A                             000FFFEE - 000FFFEF           2   rel    0

                ****************************************
                *                                      *
                *        END OF CROSS REFERENCE        *
                *                                      *
                ****************************************

 6 183 bytes of CODE  memory
 3 399 bytes of DATA  memory (+ 89 absolute )
 7 131 bytes of CONST memory

Errors: none
Warnings: none

